
ctarget:     file format elf64-x86-64


Disassembly of section .init:

0000000000400c48 <_init>:
  400c48:	f3 0f 1e fa          	endbr64 
  400c4c:	48 83 ec 08          	sub    $0x8,%rsp
  400c50:	48 8b 05 99 33 20 00 	mov    0x203399(%rip),%rax        # 603ff0 <__gmon_start__@Base>
  400c57:	48 85 c0             	test   %rax,%rax
  400c5a:	74 02                	je     400c5e <_init+0x16>
  400c5c:	ff d0                	callq  *%rax
  400c5e:	48 83 c4 08          	add    $0x8,%rsp
  400c62:	c3                   	retq   

Disassembly of section .plt:

0000000000400c70 <.plt>:
  400c70:	ff 35 92 33 20 00    	pushq  0x203392(%rip)        # 604008 <_GLOBAL_OFFSET_TABLE_+0x8>
  400c76:	ff 25 94 33 20 00    	jmpq   *0x203394(%rip)        # 604010 <_GLOBAL_OFFSET_TABLE_+0x10>
  400c7c:	0f 1f 40 00          	nopl   0x0(%rax)

0000000000400c80 <strcasecmp@plt>:
  400c80:	ff 25 92 33 20 00    	jmpq   *0x203392(%rip)        # 604018 <strcasecmp@GLIBC_2.2.5>
  400c86:	68 00 00 00 00       	pushq  $0x0
  400c8b:	e9 e0 ff ff ff       	jmpq   400c70 <.plt>

0000000000400c90 <__errno_location@plt>:
  400c90:	ff 25 8a 33 20 00    	jmpq   *0x20338a(%rip)        # 604020 <__errno_location@GLIBC_2.2.5>
  400c96:	68 01 00 00 00       	pushq  $0x1
  400c9b:	e9 d0 ff ff ff       	jmpq   400c70 <.plt>

0000000000400ca0 <srandom@plt>:
  400ca0:	ff 25 82 33 20 00    	jmpq   *0x203382(%rip)        # 604028 <srandom@GLIBC_2.2.5>
  400ca6:	68 02 00 00 00       	pushq  $0x2
  400cab:	e9 c0 ff ff ff       	jmpq   400c70 <.plt>

0000000000400cb0 <strncmp@plt>:
  400cb0:	ff 25 7a 33 20 00    	jmpq   *0x20337a(%rip)        # 604030 <strncmp@GLIBC_2.2.5>
  400cb6:	68 03 00 00 00       	pushq  $0x3
  400cbb:	e9 b0 ff ff ff       	jmpq   400c70 <.plt>

0000000000400cc0 <strcpy@plt>:
  400cc0:	ff 25 72 33 20 00    	jmpq   *0x203372(%rip)        # 604038 <strcpy@GLIBC_2.2.5>
  400cc6:	68 04 00 00 00       	pushq  $0x4
  400ccb:	e9 a0 ff ff ff       	jmpq   400c70 <.plt>

0000000000400cd0 <puts@plt>:
  400cd0:	ff 25 6a 33 20 00    	jmpq   *0x20336a(%rip)        # 604040 <puts@GLIBC_2.2.5>
  400cd6:	68 05 00 00 00       	pushq  $0x5
  400cdb:	e9 90 ff ff ff       	jmpq   400c70 <.plt>

0000000000400ce0 <write@plt>:
  400ce0:	ff 25 62 33 20 00    	jmpq   *0x203362(%rip)        # 604048 <write@GLIBC_2.2.5>
  400ce6:	68 06 00 00 00       	pushq  $0x6
  400ceb:	e9 80 ff ff ff       	jmpq   400c70 <.plt>

0000000000400cf0 <mmap@plt>:
  400cf0:	ff 25 5a 33 20 00    	jmpq   *0x20335a(%rip)        # 604050 <mmap@GLIBC_2.2.5>
  400cf6:	68 07 00 00 00       	pushq  $0x7
  400cfb:	e9 70 ff ff ff       	jmpq   400c70 <.plt>

0000000000400d00 <printf@plt>:
  400d00:	ff 25 52 33 20 00    	jmpq   *0x203352(%rip)        # 604058 <printf@GLIBC_2.2.5>
  400d06:	68 08 00 00 00       	pushq  $0x8
  400d0b:	e9 60 ff ff ff       	jmpq   400c70 <.plt>

0000000000400d10 <memset@plt>:
  400d10:	ff 25 4a 33 20 00    	jmpq   *0x20334a(%rip)        # 604060 <memset@GLIBC_2.2.5>
  400d16:	68 09 00 00 00       	pushq  $0x9
  400d1b:	e9 50 ff ff ff       	jmpq   400c70 <.plt>

0000000000400d20 <alarm@plt>:
  400d20:	ff 25 42 33 20 00    	jmpq   *0x203342(%rip)        # 604068 <alarm@GLIBC_2.2.5>
  400d26:	68 0a 00 00 00       	pushq  $0xa
  400d2b:	e9 40 ff ff ff       	jmpq   400c70 <.plt>

0000000000400d30 <close@plt>:
  400d30:	ff 25 3a 33 20 00    	jmpq   *0x20333a(%rip)        # 604070 <close@GLIBC_2.2.5>
  400d36:	68 0b 00 00 00       	pushq  $0xb
  400d3b:	e9 30 ff ff ff       	jmpq   400c70 <.plt>

0000000000400d40 <read@plt>:
  400d40:	ff 25 32 33 20 00    	jmpq   *0x203332(%rip)        # 604078 <read@GLIBC_2.2.5>
  400d46:	68 0c 00 00 00       	pushq  $0xc
  400d4b:	e9 20 ff ff ff       	jmpq   400c70 <.plt>

0000000000400d50 <signal@plt>:
  400d50:	ff 25 2a 33 20 00    	jmpq   *0x20332a(%rip)        # 604080 <signal@GLIBC_2.2.5>
  400d56:	68 0d 00 00 00       	pushq  $0xd
  400d5b:	e9 10 ff ff ff       	jmpq   400c70 <.plt>

0000000000400d60 <gethostbyname@plt>:
  400d60:	ff 25 22 33 20 00    	jmpq   *0x203322(%rip)        # 604088 <gethostbyname@GLIBC_2.2.5>
  400d66:	68 0e 00 00 00       	pushq  $0xe
  400d6b:	e9 00 ff ff ff       	jmpq   400c70 <.plt>

0000000000400d70 <fprintf@plt>:
  400d70:	ff 25 1a 33 20 00    	jmpq   *0x20331a(%rip)        # 604090 <fprintf@GLIBC_2.2.5>
  400d76:	68 0f 00 00 00       	pushq  $0xf
  400d7b:	e9 f0 fe ff ff       	jmpq   400c70 <.plt>

0000000000400d80 <strtol@plt>:
  400d80:	ff 25 12 33 20 00    	jmpq   *0x203312(%rip)        # 604098 <strtol@GLIBC_2.2.5>
  400d86:	68 10 00 00 00       	pushq  $0x10
  400d8b:	e9 e0 fe ff ff       	jmpq   400c70 <.plt>

0000000000400d90 <memcpy@plt>:
  400d90:	ff 25 0a 33 20 00    	jmpq   *0x20330a(%rip)        # 6040a0 <memcpy@GLIBC_2.14>
  400d96:	68 11 00 00 00       	pushq  $0x11
  400d9b:	e9 d0 fe ff ff       	jmpq   400c70 <.plt>

0000000000400da0 <time@plt>:
  400da0:	ff 25 02 33 20 00    	jmpq   *0x203302(%rip)        # 6040a8 <time@GLIBC_2.2.5>
  400da6:	68 12 00 00 00       	pushq  $0x12
  400dab:	e9 c0 fe ff ff       	jmpq   400c70 <.plt>

0000000000400db0 <random@plt>:
  400db0:	ff 25 fa 32 20 00    	jmpq   *0x2032fa(%rip)        # 6040b0 <random@GLIBC_2.2.5>
  400db6:	68 13 00 00 00       	pushq  $0x13
  400dbb:	e9 b0 fe ff ff       	jmpq   400c70 <.plt>

0000000000400dc0 <__isoc99_sscanf@plt>:
  400dc0:	ff 25 f2 32 20 00    	jmpq   *0x2032f2(%rip)        # 6040b8 <__isoc99_sscanf@GLIBC_2.7>
  400dc6:	68 14 00 00 00       	pushq  $0x14
  400dcb:	e9 a0 fe ff ff       	jmpq   400c70 <.plt>

0000000000400dd0 <munmap@plt>:
  400dd0:	ff 25 ea 32 20 00    	jmpq   *0x2032ea(%rip)        # 6040c0 <munmap@GLIBC_2.2.5>
  400dd6:	68 15 00 00 00       	pushq  $0x15
  400ddb:	e9 90 fe ff ff       	jmpq   400c70 <.plt>

0000000000400de0 <memmove@plt>:
  400de0:	ff 25 e2 32 20 00    	jmpq   *0x2032e2(%rip)        # 6040c8 <memmove@GLIBC_2.2.5>
  400de6:	68 16 00 00 00       	pushq  $0x16
  400deb:	e9 80 fe ff ff       	jmpq   400c70 <.plt>

0000000000400df0 <fopen@plt>:
  400df0:	ff 25 da 32 20 00    	jmpq   *0x2032da(%rip)        # 6040d0 <fopen@GLIBC_2.2.5>
  400df6:	68 17 00 00 00       	pushq  $0x17
  400dfb:	e9 70 fe ff ff       	jmpq   400c70 <.plt>

0000000000400e00 <getopt@plt>:
  400e00:	ff 25 d2 32 20 00    	jmpq   *0x2032d2(%rip)        # 6040d8 <getopt@GLIBC_2.2.5>
  400e06:	68 18 00 00 00       	pushq  $0x18
  400e0b:	e9 60 fe ff ff       	jmpq   400c70 <.plt>

0000000000400e10 <strtoul@plt>:
  400e10:	ff 25 ca 32 20 00    	jmpq   *0x2032ca(%rip)        # 6040e0 <strtoul@GLIBC_2.2.5>
  400e16:	68 19 00 00 00       	pushq  $0x19
  400e1b:	e9 50 fe ff ff       	jmpq   400c70 <.plt>

0000000000400e20 <gethostname@plt>:
  400e20:	ff 25 c2 32 20 00    	jmpq   *0x2032c2(%rip)        # 6040e8 <gethostname@GLIBC_2.2.5>
  400e26:	68 1a 00 00 00       	pushq  $0x1a
  400e2b:	e9 40 fe ff ff       	jmpq   400c70 <.plt>

0000000000400e30 <sprintf@plt>:
  400e30:	ff 25 ba 32 20 00    	jmpq   *0x2032ba(%rip)        # 6040f0 <sprintf@GLIBC_2.2.5>
  400e36:	68 1b 00 00 00       	pushq  $0x1b
  400e3b:	e9 30 fe ff ff       	jmpq   400c70 <.plt>

0000000000400e40 <exit@plt>:
  400e40:	ff 25 b2 32 20 00    	jmpq   *0x2032b2(%rip)        # 6040f8 <exit@GLIBC_2.2.5>
  400e46:	68 1c 00 00 00       	pushq  $0x1c
  400e4b:	e9 20 fe ff ff       	jmpq   400c70 <.plt>

0000000000400e50 <connect@plt>:
  400e50:	ff 25 aa 32 20 00    	jmpq   *0x2032aa(%rip)        # 604100 <connect@GLIBC_2.2.5>
  400e56:	68 1d 00 00 00       	pushq  $0x1d
  400e5b:	e9 10 fe ff ff       	jmpq   400c70 <.plt>

0000000000400e60 <getc@plt>:
  400e60:	ff 25 a2 32 20 00    	jmpq   *0x2032a2(%rip)        # 604108 <getc@GLIBC_2.2.5>
  400e66:	68 1e 00 00 00       	pushq  $0x1e
  400e6b:	e9 00 fe ff ff       	jmpq   400c70 <.plt>

0000000000400e70 <socket@plt>:
  400e70:	ff 25 9a 32 20 00    	jmpq   *0x20329a(%rip)        # 604110 <socket@GLIBC_2.2.5>
  400e76:	68 1f 00 00 00       	pushq  $0x1f
  400e7b:	e9 f0 fd ff ff       	jmpq   400c70 <.plt>

Disassembly of section .text:

0000000000400e80 <_start>:
  400e80:	f3 0f 1e fa          	endbr64 
  400e84:	31 ed                	xor    %ebp,%ebp
  400e86:	49 89 d1             	mov    %rdx,%r9
  400e89:	5e                   	pop    %rsi
  400e8a:	48 89 e2             	mov    %rsp,%rdx
  400e8d:	48 83 e4 f0          	and    $0xfffffffffffffff0,%rsp
  400e91:	50                   	push   %rax
  400e92:	54                   	push   %rsp
  400e93:	49 c7 c0 c0 2c 40 00 	mov    $0x402cc0,%r8
  400e9a:	48 c7 c1 50 2c 40 00 	mov    $0x402c50,%rcx
  400ea1:	48 c7 c7 2f 11 40 00 	mov    $0x40112f,%rdi
  400ea8:	ff 15 3a 31 20 00    	callq  *0x20313a(%rip)        # 603fe8 <__libc_start_main@GLIBC_2.2.5>
  400eae:	f4                   	hlt    

0000000000400eaf <.annobin_init.c>:
  400eaf:	90                   	nop

0000000000400eb0 <_dl_relocate_static_pie>:
  400eb0:	f3 0f 1e fa          	endbr64 
  400eb4:	c3                   	retq   

0000000000400eb5 <.annobin__dl_relocate_static_pie.end>:
  400eb5:	66 2e 0f 1f 84 00 00 	nopw   %cs:0x0(%rax,%rax,1)
  400ebc:	00 00 00 
  400ebf:	90                   	nop

0000000000400ec0 <deregister_tm_clones>:
  400ec0:	48 8d 3d c9 35 20 00 	lea    0x2035c9(%rip),%rdi        # 604490 <__TMC_END__>
  400ec7:	48 8d 05 c2 35 20 00 	lea    0x2035c2(%rip),%rax        # 604490 <__TMC_END__>
  400ece:	48 39 f8             	cmp    %rdi,%rax
  400ed1:	74 15                	je     400ee8 <deregister_tm_clones+0x28>
  400ed3:	48 8b 05 06 31 20 00 	mov    0x203106(%rip),%rax        # 603fe0 <_ITM_deregisterTMCloneTable@Base>
  400eda:	48 85 c0             	test   %rax,%rax
  400edd:	74 09                	je     400ee8 <deregister_tm_clones+0x28>
  400edf:	ff e0                	jmpq   *%rax
  400ee1:	0f 1f 80 00 00 00 00 	nopl   0x0(%rax)
  400ee8:	c3                   	retq   
  400ee9:	0f 1f 80 00 00 00 00 	nopl   0x0(%rax)

0000000000400ef0 <register_tm_clones>:
  400ef0:	48 8d 3d 99 35 20 00 	lea    0x203599(%rip),%rdi        # 604490 <__TMC_END__>
  400ef7:	48 8d 35 92 35 20 00 	lea    0x203592(%rip),%rsi        # 604490 <__TMC_END__>
  400efe:	48 29 fe             	sub    %rdi,%rsi
  400f01:	48 c1 fe 03          	sar    $0x3,%rsi
  400f05:	48 89 f0             	mov    %rsi,%rax
  400f08:	48 c1 e8 3f          	shr    $0x3f,%rax
  400f0c:	48 01 c6             	add    %rax,%rsi
  400f0f:	48 d1 fe             	sar    %rsi
  400f12:	74 14                	je     400f28 <register_tm_clones+0x38>
  400f14:	48 8b 05 dd 30 20 00 	mov    0x2030dd(%rip),%rax        # 603ff8 <_ITM_registerTMCloneTable@Base>
  400f1b:	48 85 c0             	test   %rax,%rax
  400f1e:	74 08                	je     400f28 <register_tm_clones+0x38>
  400f20:	ff e0                	jmpq   *%rax
  400f22:	66 0f 1f 44 00 00    	nopw   0x0(%rax,%rax,1)
  400f28:	c3                   	retq   
  400f29:	0f 1f 80 00 00 00 00 	nopl   0x0(%rax)

0000000000400f30 <__do_global_dtors_aux>:
  400f30:	f3 0f 1e fa          	endbr64 
  400f34:	80 3d 8d 35 20 00 00 	cmpb   $0x0,0x20358d(%rip)        # 6044c8 <completed.7303>
  400f3b:	75 13                	jne    400f50 <__do_global_dtors_aux+0x20>
  400f3d:	55                   	push   %rbp
  400f3e:	48 89 e5             	mov    %rsp,%rbp
  400f41:	e8 7a ff ff ff       	callq  400ec0 <deregister_tm_clones>
  400f46:	c6 05 7b 35 20 00 01 	movb   $0x1,0x20357b(%rip)        # 6044c8 <completed.7303>
  400f4d:	5d                   	pop    %rbp
  400f4e:	c3                   	retq   
  400f4f:	90                   	nop
  400f50:	c3                   	retq   
  400f51:	66 66 2e 0f 1f 84 00 	data16 nopw %cs:0x0(%rax,%rax,1)
  400f58:	00 00 00 00 
  400f5c:	0f 1f 40 00          	nopl   0x0(%rax)

0000000000400f60 <frame_dummy>:
  400f60:	f3 0f 1e fa          	endbr64 
  400f64:	eb 8a                	jmp    400ef0 <register_tm_clones>

0000000000400f66 <usage>:
  400f66:	48 83 ec 08          	sub    $0x8,%rsp
  400f6a:	48 89 fe             	mov    %rdi,%rsi
  400f6d:	83 3d 94 35 20 00 00 	cmpl   $0x0,0x203594(%rip)        # 604508 <is_checker>
  400f74:	74 41                	je     400fb7 <usage+0x51>
  400f76:	bf f0 2c 40 00       	mov    $0x402cf0,%edi
  400f7b:	b8 00 00 00 00       	mov    $0x0,%eax
  400f80:	e8 7b fd ff ff       	callq  400d00 <printf@plt>
  400f85:	bf 28 2d 40 00       	mov    $0x402d28,%edi
  400f8a:	e8 41 fd ff ff       	callq  400cd0 <puts@plt>
  400f8f:	bf a0 2e 40 00       	mov    $0x402ea0,%edi
  400f94:	e8 37 fd ff ff       	callq  400cd0 <puts@plt>
  400f99:	bf 50 2d 40 00       	mov    $0x402d50,%edi
  400f9e:	e8 2d fd ff ff       	callq  400cd0 <puts@plt>
  400fa3:	bf ba 2e 40 00       	mov    $0x402eba,%edi
  400fa8:	e8 23 fd ff ff       	callq  400cd0 <puts@plt>
  400fad:	bf 00 00 00 00       	mov    $0x0,%edi
  400fb2:	e8 89 fe ff ff       	callq  400e40 <exit@plt>
  400fb7:	bf d6 2e 40 00       	mov    $0x402ed6,%edi
  400fbc:	b8 00 00 00 00       	mov    $0x0,%eax
  400fc1:	e8 3a fd ff ff       	callq  400d00 <printf@plt>
  400fc6:	bf 78 2d 40 00       	mov    $0x402d78,%edi
  400fcb:	e8 00 fd ff ff       	callq  400cd0 <puts@plt>
  400fd0:	bf a0 2d 40 00       	mov    $0x402da0,%edi
  400fd5:	e8 f6 fc ff ff       	callq  400cd0 <puts@plt>
  400fda:	bf f4 2e 40 00       	mov    $0x402ef4,%edi
  400fdf:	e8 ec fc ff ff       	callq  400cd0 <puts@plt>
  400fe4:	eb c7                	jmp    400fad <usage+0x47>

0000000000400fe6 <initialize_target>:
  400fe6:	55                   	push   %rbp
  400fe7:	53                   	push   %rbx
  400fe8:	48 81 ec 08 21 00 00 	sub    $0x2108,%rsp
  400fef:	89 f5                	mov    %esi,%ebp
  400ff1:	89 3d 01 35 20 00    	mov    %edi,0x203501(%rip)        # 6044f8 <check_level>
  400ff7:	8b 3d 4b 31 20 00    	mov    0x20314b(%rip),%edi        # 604148 <target_id>
  400ffd:	e8 23 1c 00 00       	callq  402c25 <gencookie>
  401002:	89 05 fc 34 20 00    	mov    %eax,0x2034fc(%rip)        # 604504 <cookie>
  401008:	89 c7                	mov    %eax,%edi
  40100a:	e8 16 1c 00 00       	callq  402c25 <gencookie>
  40100f:	89 05 eb 34 20 00    	mov    %eax,0x2034eb(%rip)        # 604500 <authkey>
  401015:	8b 05 2d 31 20 00    	mov    0x20312d(%rip),%eax        # 604148 <target_id>
  40101b:	8d 78 01             	lea    0x1(%rax),%edi
  40101e:	e8 7d fc ff ff       	callq  400ca0 <srandom@plt>
  401023:	e8 88 fd ff ff       	callq  400db0 <random@plt>
  401028:	89 c7                	mov    %eax,%edi
  40102a:	e8 b8 02 00 00       	callq  4012e7 <scramble>
  40102f:	89 c3                	mov    %eax,%ebx
  401031:	85 ed                	test   %ebp,%ebp
  401033:	75 3d                	jne    401072 <initialize_target+0x8c>
  401035:	b8 00 00 00 00       	mov    $0x0,%eax
  40103a:	01 d8                	add    %ebx,%eax
  40103c:	0f b7 c0             	movzwl %ax,%eax
  40103f:	8d 04 c5 00 01 00 00 	lea    0x100(,%rax,8),%eax
  401046:	89 c0                	mov    %eax,%eax
  401048:	48 89 05 31 34 20 00 	mov    %rax,0x203431(%rip)        # 604480 <buf_offset>
  40104f:	c6 05 d2 40 20 00 63 	movb   $0x63,0x2040d2(%rip)        # 605128 <target_prefix>
  401056:	83 3d 2b 34 20 00 00 	cmpl   $0x0,0x20342b(%rip)        # 604488 <notify>
  40105d:	74 09                	je     401068 <initialize_target+0x82>
  40105f:	83 3d a2 34 20 00 00 	cmpl   $0x0,0x2034a2(%rip)        # 604508 <is_checker>
  401066:	74 22                	je     40108a <initialize_target+0xa4>
  401068:	48 81 c4 08 21 00 00 	add    $0x2108,%rsp
  40106f:	5b                   	pop    %rbx
  401070:	5d                   	pop    %rbp
  401071:	c3                   	retq   
  401072:	bf 00 00 00 00       	mov    $0x0,%edi
  401077:	e8 24 fd ff ff       	callq  400da0 <time@plt>
  40107c:	89 c7                	mov    %eax,%edi
  40107e:	e8 1d fc ff ff       	callq  400ca0 <srandom@plt>
  401083:	e8 28 fd ff ff       	callq  400db0 <random@plt>
  401088:	eb b0                	jmp    40103a <initialize_target+0x54>
  40108a:	be 00 01 00 00       	mov    $0x100,%esi
  40108f:	48 89 e7             	mov    %rsp,%rdi
  401092:	e8 89 fd ff ff       	callq  400e20 <gethostname@plt>
  401097:	89 c5                	mov    %eax,%ebp
  401099:	85 c0                	test   %eax,%eax
  40109b:	75 23                	jne    4010c0 <initialize_target+0xda>
  40109d:	89 c3                	mov    %eax,%ebx
  40109f:	48 63 c3             	movslq %ebx,%rax
  4010a2:	48 8b 3c c5 60 41 60 	mov    0x604160(,%rax,8),%rdi
  4010a9:	00 
  4010aa:	48 85 ff             	test   %rdi,%rdi
  4010ad:	74 2a                	je     4010d9 <initialize_target+0xf3>
  4010af:	48 89 e6             	mov    %rsp,%rsi
  4010b2:	e8 c9 fb ff ff       	callq  400c80 <strcasecmp@plt>
  4010b7:	85 c0                	test   %eax,%eax
  4010b9:	74 19                	je     4010d4 <initialize_target+0xee>
  4010bb:	83 c3 01             	add    $0x1,%ebx
  4010be:	eb df                	jmp    40109f <initialize_target+0xb9>
  4010c0:	bf d0 2d 40 00       	mov    $0x402dd0,%edi
  4010c5:	e8 06 fc ff ff       	callq  400cd0 <puts@plt>
  4010ca:	bf 08 00 00 00       	mov    $0x8,%edi
  4010cf:	e8 6c fd ff ff       	callq  400e40 <exit@plt>
  4010d4:	bd 01 00 00 00       	mov    $0x1,%ebp
  4010d9:	85 ed                	test   %ebp,%ebp
  4010db:	74 36                	je     401113 <initialize_target+0x12d>
  4010dd:	48 8d bc 24 00 01 00 	lea    0x100(%rsp),%rdi
  4010e4:	00 
  4010e5:	e8 c5 18 00 00       	callq  4029af <init_driver>
  4010ea:	85 c0                	test   %eax,%eax
  4010ec:	0f 89 76 ff ff ff    	jns    401068 <initialize_target+0x82>
  4010f2:	48 8d b4 24 00 01 00 	lea    0x100(%rsp),%rsi
  4010f9:	00 
  4010fa:	bf 48 2e 40 00       	mov    $0x402e48,%edi
  4010ff:	b8 00 00 00 00       	mov    $0x0,%eax
  401104:	e8 f7 fb ff ff       	callq  400d00 <printf@plt>
  401109:	bf 08 00 00 00       	mov    $0x8,%edi
  40110e:	e8 2d fd ff ff       	callq  400e40 <exit@plt>
  401113:	48 89 e6             	mov    %rsp,%rsi
  401116:	bf 08 2e 40 00       	mov    $0x402e08,%edi
  40111b:	b8 00 00 00 00       	mov    $0x0,%eax
  401120:	e8 db fb ff ff       	callq  400d00 <printf@plt>
  401125:	bf 08 00 00 00       	mov    $0x8,%edi
  40112a:	e8 11 fd ff ff       	callq  400e40 <exit@plt>

000000000040112f <main>:
  40112f:	41 56                	push   %r14
  401131:	41 55                	push   %r13
  401133:	41 54                	push   %r12
  401135:	55                   	push   %rbp
  401136:	53                   	push   %rbx
  401137:	89 fd                	mov    %edi,%ebp
  401139:	48 89 f3             	mov    %rsi,%rbx
  40113c:	be b4 1d 40 00       	mov    $0x401db4,%esi
  401141:	bf 0b 00 00 00       	mov    $0xb,%edi
  401146:	e8 05 fc ff ff       	callq  400d50 <signal@plt>
  40114b:	be 66 1d 40 00       	mov    $0x401d66,%esi
  401150:	bf 07 00 00 00       	mov    $0x7,%edi
  401155:	e8 f6 fb ff ff       	callq  400d50 <signal@plt>
  40115a:	be 02 1e 40 00       	mov    $0x401e02,%esi
  40115f:	bf 04 00 00 00       	mov    $0x4,%edi
  401164:	e8 e7 fb ff ff       	callq  400d50 <signal@plt>
  401169:	83 3d 98 33 20 00 00 	cmpl   $0x0,0x203398(%rip)        # 604508 <is_checker>
  401170:	75 25                	jne    401197 <main+0x68>
  401172:	41 bc 0d 2f 40 00    	mov    $0x402f0d,%r12d
  401178:	48 8b 05 21 33 20 00 	mov    0x203321(%rip),%rax        # 6044a0 <stdin@@GLIBC_2.2.5>
  40117f:	48 89 05 6a 33 20 00 	mov    %rax,0x20336a(%rip)        # 6044f0 <infile>
  401186:	41 bd 00 00 00 00    	mov    $0x0,%r13d
  40118c:	41 be 00 00 00 00    	mov    $0x0,%r14d
  401192:	e9 81 00 00 00       	jmpq   401218 <main+0xe9>
  401197:	be 50 1e 40 00       	mov    $0x401e50,%esi
  40119c:	bf 0e 00 00 00       	mov    $0xe,%edi
  4011a1:	e8 aa fb ff ff       	callq  400d50 <signal@plt>
  4011a6:	bf 05 00 00 00       	mov    $0x5,%edi
  4011ab:	e8 70 fb ff ff       	callq  400d20 <alarm@plt>
  4011b0:	41 bc 12 2f 40 00    	mov    $0x402f12,%r12d
  4011b6:	eb c0                	jmp    401178 <main+0x49>
  4011b8:	48 8b 3b             	mov    (%rbx),%rdi
  4011bb:	e8 a6 fd ff ff       	callq  400f66 <usage>
  4011c0:	be d5 31 40 00       	mov    $0x4031d5,%esi
  4011c5:	48 8b 3d dc 32 20 00 	mov    0x2032dc(%rip),%rdi        # 6044a8 <optarg@@GLIBC_2.2.5>
  4011cc:	e8 1f fc ff ff       	callq  400df0 <fopen@plt>
  4011d1:	48 89 05 18 33 20 00 	mov    %rax,0x203318(%rip)        # 6044f0 <infile>
  4011d8:	48 85 c0             	test   %rax,%rax
  4011db:	75 3b                	jne    401218 <main+0xe9>
  4011dd:	48 8b 15 c4 32 20 00 	mov    0x2032c4(%rip),%rdx        # 6044a8 <optarg@@GLIBC_2.2.5>
  4011e4:	be 1a 2f 40 00       	mov    $0x402f1a,%esi
  4011e9:	48 8b 3d d0 32 20 00 	mov    0x2032d0(%rip),%rdi        # 6044c0 <stderr@@GLIBC_2.2.5>
  4011f0:	e8 7b fb ff ff       	callq  400d70 <fprintf@plt>
  4011f5:	b8 01 00 00 00       	mov    $0x1,%eax
  4011fa:	e9 c1 00 00 00       	jmpq   4012c0 <main+0x191>
  4011ff:	ba 10 00 00 00       	mov    $0x10,%edx
  401204:	be 00 00 00 00       	mov    $0x0,%esi
  401209:	48 8b 3d 98 32 20 00 	mov    0x203298(%rip),%rdi        # 6044a8 <optarg@@GLIBC_2.2.5>
  401210:	e8 fb fb ff ff       	callq  400e10 <strtoul@plt>
  401215:	41 89 c6             	mov    %eax,%r14d
  401218:	4c 89 e2             	mov    %r12,%rdx
  40121b:	48 89 de             	mov    %rbx,%rsi
  40121e:	89 ef                	mov    %ebp,%edi
  401220:	e8 db fb ff ff       	callq  400e00 <getopt@plt>
  401225:	3c ff                	cmp    $0xff,%al
  401227:	74 52                	je     40127b <main+0x14c>
  401229:	0f be f0             	movsbl %al,%esi
  40122c:	83 e8 61             	sub    $0x61,%eax
  40122f:	3c 10                	cmp    $0x10,%al
  401231:	77 31                	ja     401264 <main+0x135>
  401233:	0f b6 c0             	movzbl %al,%eax
  401236:	ff 24 c5 58 2f 40 00 	jmpq   *0x402f58(,%rax,8)
  40123d:	ba 0a 00 00 00       	mov    $0xa,%edx
  401242:	be 00 00 00 00       	mov    $0x0,%esi
  401247:	48 8b 3d 5a 32 20 00 	mov    0x20325a(%rip),%rdi        # 6044a8 <optarg@@GLIBC_2.2.5>
  40124e:	e8 2d fb ff ff       	callq  400d80 <strtol@plt>
  401253:	41 89 c5             	mov    %eax,%r13d
  401256:	eb c0                	jmp    401218 <main+0xe9>
  401258:	c7 05 26 32 20 00 00 	movl   $0x0,0x203226(%rip)        # 604488 <notify>
  40125f:	00 00 00 
  401262:	eb b4                	jmp    401218 <main+0xe9>
  401264:	bf 37 2f 40 00       	mov    $0x402f37,%edi
  401269:	b8 00 00 00 00       	mov    $0x0,%eax
  40126e:	e8 8d fa ff ff       	callq  400d00 <printf@plt>
  401273:	48 8b 3b             	mov    (%rbx),%rdi
  401276:	e8 eb fc ff ff       	callq  400f66 <usage>
  40127b:	be 00 00 00 00       	mov    $0x0,%esi
  401280:	44 89 ef             	mov    %r13d,%edi
  401283:	e8 5e fd ff ff       	callq  400fe6 <initialize_target>
  401288:	83 3d 79 32 20 00 00 	cmpl   $0x0,0x203279(%rip)        # 604508 <is_checker>
  40128f:	74 09                	je     40129a <main+0x16b>
  401291:	44 39 35 68 32 20 00 	cmp    %r14d,0x203268(%rip)        # 604500 <authkey>
  401298:	75 2f                	jne    4012c9 <main+0x19a>
  40129a:	8b 35 64 32 20 00    	mov    0x203264(%rip),%esi        # 604504 <cookie>
  4012a0:	bf 4a 2f 40 00       	mov    $0x402f4a,%edi
  4012a5:	b8 00 00 00 00       	mov    $0x0,%eax
  4012aa:	e8 51 fa ff ff       	callq  400d00 <printf@plt>
  4012af:	48 8b 3d ca 31 20 00 	mov    0x2031ca(%rip),%rdi        # 604480 <buf_offset>
  4012b6:	e8 66 0c 00 00       	callq  401f21 <stable_launch>
  4012bb:	b8 00 00 00 00       	mov    $0x0,%eax
  4012c0:	5b                   	pop    %rbx
  4012c1:	5d                   	pop    %rbp
  4012c2:	41 5c                	pop    %r12
  4012c4:	41 5d                	pop    %r13
  4012c6:	41 5e                	pop    %r14
  4012c8:	c3                   	retq   
  4012c9:	44 89 f6             	mov    %r14d,%esi
  4012cc:	bf 70 2e 40 00       	mov    $0x402e70,%edi
  4012d1:	b8 00 00 00 00       	mov    $0x0,%eax
  4012d6:	e8 25 fa ff ff       	callq  400d00 <printf@plt>
  4012db:	b8 00 00 00 00       	mov    $0x0,%eax
  4012e0:	e8 85 07 00 00       	callq  401a6a <check_fail>
  4012e5:	eb b3                	jmp    40129a <main+0x16b>

00000000004012e7 <scramble>:
  4012e7:	b8 00 00 00 00       	mov    $0x0,%eax
  4012ec:	83 f8 09             	cmp    $0x9,%eax
  4012ef:	77 13                	ja     401304 <scramble+0x1d>
  4012f1:	69 d0 4f 34 00 00    	imul   $0x344f,%eax,%edx
  4012f7:	01 fa                	add    %edi,%edx
  4012f9:	89 c1                	mov    %eax,%ecx
  4012fb:	89 54 8c d0          	mov    %edx,-0x30(%rsp,%rcx,4)
  4012ff:	83 c0 01             	add    $0x1,%eax
  401302:	eb e8                	jmp    4012ec <scramble+0x5>
  401304:	8b 44 24 e4          	mov    -0x1c(%rsp),%eax
  401308:	69 c0 a4 0d 00 00    	imul   $0xda4,%eax,%eax
  40130e:	89 44 24 e4          	mov    %eax,-0x1c(%rsp)
  401312:	8b 44 24 ec          	mov    -0x14(%rsp),%eax
  401316:	69 c0 3f 1e 00 00    	imul   $0x1e3f,%eax,%eax
  40131c:	89 44 24 ec          	mov    %eax,-0x14(%rsp)
  401320:	8b 44 24 d8          	mov    -0x28(%rsp),%eax
  401324:	69 c0 97 07 00 00    	imul   $0x797,%eax,%eax
  40132a:	89 44 24 d8          	mov    %eax,-0x28(%rsp)
  40132e:	8b 44 24 d4          	mov    -0x2c(%rsp),%eax
  401332:	69 c0 2b 25 00 00    	imul   $0x252b,%eax,%eax
  401338:	89 44 24 d4          	mov    %eax,-0x2c(%rsp)
  40133c:	8b 44 24 d4          	mov    -0x2c(%rsp),%eax
  401340:	69 c0 90 e1 00 00    	imul   $0xe190,%eax,%eax
  401346:	89 44 24 d4          	mov    %eax,-0x2c(%rsp)
  40134a:	8b 44 24 f0          	mov    -0x10(%rsp),%eax
  40134e:	69 c0 24 dd 00 00    	imul   $0xdd24,%eax,%eax
  401354:	89 44 24 f0          	mov    %eax,-0x10(%rsp)
  401358:	8b 44 24 f4          	mov    -0xc(%rsp),%eax
  40135c:	69 c0 4e 8a 00 00    	imul   $0x8a4e,%eax,%eax
  401362:	89 44 24 f4          	mov    %eax,-0xc(%rsp)
  401366:	8b 44 24 f4          	mov    -0xc(%rsp),%eax
  40136a:	69 c0 5d 4a 00 00    	imul   $0x4a5d,%eax,%eax
  401370:	89 44 24 f4          	mov    %eax,-0xc(%rsp)
  401374:	8b 44 24 ec          	mov    -0x14(%rsp),%eax
  401378:	69 c0 77 14 00 00    	imul   $0x1477,%eax,%eax
  40137e:	89 44 24 ec          	mov    %eax,-0x14(%rsp)
  401382:	8b 44 24 f4          	mov    -0xc(%rsp),%eax
  401386:	69 c0 c0 9e 00 00    	imul   $0x9ec0,%eax,%eax
  40138c:	89 44 24 f4          	mov    %eax,-0xc(%rsp)
  401390:	8b 44 24 f0          	mov    -0x10(%rsp),%eax
  401394:	69 c0 e3 c2 00 00    	imul   $0xc2e3,%eax,%eax
  40139a:	89 44 24 f0          	mov    %eax,-0x10(%rsp)
  40139e:	8b 44 24 d8          	mov    -0x28(%rsp),%eax
  4013a2:	69 c0 f3 eb 00 00    	imul   $0xebf3,%eax,%eax
  4013a8:	89 44 24 d8          	mov    %eax,-0x28(%rsp)
  4013ac:	8b 44 24 ec          	mov    -0x14(%rsp),%eax
  4013b0:	69 c0 a3 5f 00 00    	imul   $0x5fa3,%eax,%eax
  4013b6:	89 44 24 ec          	mov    %eax,-0x14(%rsp)
  4013ba:	8b 44 24 d0          	mov    -0x30(%rsp),%eax
  4013be:	69 c0 3c f9 00 00    	imul   $0xf93c,%eax,%eax
  4013c4:	89 44 24 d0          	mov    %eax,-0x30(%rsp)
  4013c8:	8b 44 24 e4          	mov    -0x1c(%rsp),%eax
  4013cc:	69 c0 76 a2 00 00    	imul   $0xa276,%eax,%eax
  4013d2:	89 44 24 e4          	mov    %eax,-0x1c(%rsp)
  4013d6:	8b 44 24 d8          	mov    -0x28(%rsp),%eax
  4013da:	69 c0 2f 48 00 00    	imul   $0x482f,%eax,%eax
  4013e0:	89 44 24 d8          	mov    %eax,-0x28(%rsp)
  4013e4:	8b 44 24 f0          	mov    -0x10(%rsp),%eax
  4013e8:	69 c0 09 90 00 00    	imul   $0x9009,%eax,%eax
  4013ee:	89 44 24 f0          	mov    %eax,-0x10(%rsp)
  4013f2:	8b 44 24 f0          	mov    -0x10(%rsp),%eax
  4013f6:	69 c0 3d c6 00 00    	imul   $0xc63d,%eax,%eax
  4013fc:	89 44 24 f0          	mov    %eax,-0x10(%rsp)
  401400:	8b 44 24 d0          	mov    -0x30(%rsp),%eax
  401404:	69 c0 0b 10 00 00    	imul   $0x100b,%eax,%eax
  40140a:	89 44 24 d0          	mov    %eax,-0x30(%rsp)
  40140e:	8b 44 24 dc          	mov    -0x24(%rsp),%eax
  401412:	69 c0 b6 07 00 00    	imul   $0x7b6,%eax,%eax
  401418:	89 44 24 dc          	mov    %eax,-0x24(%rsp)
  40141c:	8b 44 24 e0          	mov    -0x20(%rsp),%eax
  401420:	69 c0 c7 db 00 00    	imul   $0xdbc7,%eax,%eax
  401426:	89 44 24 e0          	mov    %eax,-0x20(%rsp)
  40142a:	8b 44 24 ec          	mov    -0x14(%rsp),%eax
  40142e:	69 c0 57 d2 00 00    	imul   $0xd257,%eax,%eax
  401434:	89 44 24 ec          	mov    %eax,-0x14(%rsp)
  401438:	8b 44 24 d4          	mov    -0x2c(%rsp),%eax
  40143c:	69 c0 9c a6 00 00    	imul   $0xa69c,%eax,%eax
  401442:	89 44 24 d4          	mov    %eax,-0x2c(%rsp)
  401446:	8b 44 24 e4          	mov    -0x1c(%rsp),%eax
  40144a:	69 c0 50 5c 00 00    	imul   $0x5c50,%eax,%eax
  401450:	89 44 24 e4          	mov    %eax,-0x1c(%rsp)
  401454:	8b 44 24 d4          	mov    -0x2c(%rsp),%eax
  401458:	69 c0 a4 ec 00 00    	imul   $0xeca4,%eax,%eax
  40145e:	89 44 24 d4          	mov    %eax,-0x2c(%rsp)
  401462:	8b 44 24 f0          	mov    -0x10(%rsp),%eax
  401466:	69 c0 d1 51 00 00    	imul   $0x51d1,%eax,%eax
  40146c:	89 44 24 f0          	mov    %eax,-0x10(%rsp)
  401470:	8b 44 24 d0          	mov    -0x30(%rsp),%eax
  401474:	69 c0 f9 74 00 00    	imul   $0x74f9,%eax,%eax
  40147a:	89 44 24 d0          	mov    %eax,-0x30(%rsp)
  40147e:	8b 44 24 e0          	mov    -0x20(%rsp),%eax
  401482:	69 c0 42 04 00 00    	imul   $0x442,%eax,%eax
  401488:	89 44 24 e0          	mov    %eax,-0x20(%rsp)
  40148c:	8b 44 24 d0          	mov    -0x30(%rsp),%eax
  401490:	69 c0 33 94 00 00    	imul   $0x9433,%eax,%eax
  401496:	89 44 24 d0          	mov    %eax,-0x30(%rsp)
  40149a:	8b 44 24 e4          	mov    -0x1c(%rsp),%eax
  40149e:	69 c0 7c e8 00 00    	imul   $0xe87c,%eax,%eax
  4014a4:	89 44 24 e4          	mov    %eax,-0x1c(%rsp)
  4014a8:	8b 44 24 e4          	mov    -0x1c(%rsp),%eax
  4014ac:	69 c0 31 62 00 00    	imul   $0x6231,%eax,%eax
  4014b2:	89 44 24 e4          	mov    %eax,-0x1c(%rsp)
  4014b6:	8b 44 24 f0          	mov    -0x10(%rsp),%eax
  4014ba:	69 c0 c3 e6 00 00    	imul   $0xe6c3,%eax,%eax
  4014c0:	89 44 24 f0          	mov    %eax,-0x10(%rsp)
  4014c4:	8b 44 24 f4          	mov    -0xc(%rsp),%eax
  4014c8:	69 c0 1a 97 00 00    	imul   $0x971a,%eax,%eax
  4014ce:	89 44 24 f4          	mov    %eax,-0xc(%rsp)
  4014d2:	8b 44 24 f4          	mov    -0xc(%rsp),%eax
  4014d6:	69 c0 db 89 00 00    	imul   $0x89db,%eax,%eax
  4014dc:	89 44 24 f4          	mov    %eax,-0xc(%rsp)
  4014e0:	8b 44 24 f4          	mov    -0xc(%rsp),%eax
  4014e4:	69 c0 69 98 00 00    	imul   $0x9869,%eax,%eax
  4014ea:	89 44 24 f4          	mov    %eax,-0xc(%rsp)
  4014ee:	8b 44 24 d4          	mov    -0x2c(%rsp),%eax
  4014f2:	69 c0 c0 98 00 00    	imul   $0x98c0,%eax,%eax
  4014f8:	89 44 24 d4          	mov    %eax,-0x2c(%rsp)
  4014fc:	8b 44 24 ec          	mov    -0x14(%rsp),%eax
  401500:	69 c0 6b 76 00 00    	imul   $0x766b,%eax,%eax
  401506:	89 44 24 ec          	mov    %eax,-0x14(%rsp)
  40150a:	8b 44 24 d4          	mov    -0x2c(%rsp),%eax
  40150e:	69 c0 46 da 00 00    	imul   $0xda46,%eax,%eax
  401514:	89 44 24 d4          	mov    %eax,-0x2c(%rsp)
  401518:	8b 44 24 f4          	mov    -0xc(%rsp),%eax
  40151c:	69 c0 cc 87 00 00    	imul   $0x87cc,%eax,%eax
  401522:	89 44 24 f4          	mov    %eax,-0xc(%rsp)
  401526:	8b 44 24 ec          	mov    -0x14(%rsp),%eax
  40152a:	69 c0 1b d8 00 00    	imul   $0xd81b,%eax,%eax
  401530:	89 44 24 ec          	mov    %eax,-0x14(%rsp)
  401534:	8b 44 24 e8          	mov    -0x18(%rsp),%eax
  401538:	69 c0 a8 31 00 00    	imul   $0x31a8,%eax,%eax
  40153e:	89 44 24 e8          	mov    %eax,-0x18(%rsp)
  401542:	8b 44 24 dc          	mov    -0x24(%rsp),%eax
  401546:	69 c0 f9 23 00 00    	imul   $0x23f9,%eax,%eax
  40154c:	89 44 24 dc          	mov    %eax,-0x24(%rsp)
  401550:	8b 44 24 f4          	mov    -0xc(%rsp),%eax
  401554:	69 c0 b0 67 00 00    	imul   $0x67b0,%eax,%eax
  40155a:	89 44 24 f4          	mov    %eax,-0xc(%rsp)
  40155e:	8b 44 24 ec          	mov    -0x14(%rsp),%eax
  401562:	69 c0 3d 7b 00 00    	imul   $0x7b3d,%eax,%eax
  401568:	89 44 24 ec          	mov    %eax,-0x14(%rsp)
  40156c:	8b 44 24 f0          	mov    -0x10(%rsp),%eax
  401570:	69 c0 b9 25 00 00    	imul   $0x25b9,%eax,%eax
  401576:	89 44 24 f0          	mov    %eax,-0x10(%rsp)
  40157a:	8b 44 24 e8          	mov    -0x18(%rsp),%eax
  40157e:	69 c0 8c 32 00 00    	imul   $0x328c,%eax,%eax
  401584:	89 44 24 e8          	mov    %eax,-0x18(%rsp)
  401588:	8b 44 24 d4          	mov    -0x2c(%rsp),%eax
  40158c:	69 c0 65 94 00 00    	imul   $0x9465,%eax,%eax
  401592:	89 44 24 d4          	mov    %eax,-0x2c(%rsp)
  401596:	8b 44 24 f4          	mov    -0xc(%rsp),%eax
  40159a:	69 c0 25 7a 00 00    	imul   $0x7a25,%eax,%eax
  4015a0:	89 44 24 f4          	mov    %eax,-0xc(%rsp)
  4015a4:	8b 44 24 e0          	mov    -0x20(%rsp),%eax
  4015a8:	69 c0 50 c6 00 00    	imul   $0xc650,%eax,%eax
  4015ae:	89 44 24 e0          	mov    %eax,-0x20(%rsp)
  4015b2:	8b 44 24 d8          	mov    -0x28(%rsp),%eax
  4015b6:	69 c0 a4 d2 00 00    	imul   $0xd2a4,%eax,%eax
  4015bc:	89 44 24 d8          	mov    %eax,-0x28(%rsp)
  4015c0:	8b 44 24 d8          	mov    -0x28(%rsp),%eax
  4015c4:	69 c0 91 95 00 00    	imul   $0x9591,%eax,%eax
  4015ca:	89 44 24 d8          	mov    %eax,-0x28(%rsp)
  4015ce:	8b 44 24 d0          	mov    -0x30(%rsp),%eax
  4015d2:	69 c0 eb d2 00 00    	imul   $0xd2eb,%eax,%eax
  4015d8:	89 44 24 d0          	mov    %eax,-0x30(%rsp)
  4015dc:	8b 44 24 e4          	mov    -0x1c(%rsp),%eax
  4015e0:	69 c0 7c d6 00 00    	imul   $0xd67c,%eax,%eax
  4015e6:	89 44 24 e4          	mov    %eax,-0x1c(%rsp)
  4015ea:	8b 44 24 d8          	mov    -0x28(%rsp),%eax
  4015ee:	69 c0 04 29 00 00    	imul   $0x2904,%eax,%eax
  4015f4:	89 44 24 d8          	mov    %eax,-0x28(%rsp)
  4015f8:	8b 44 24 d4          	mov    -0x2c(%rsp),%eax
  4015fc:	69 c0 c8 e3 00 00    	imul   $0xe3c8,%eax,%eax
  401602:	89 44 24 d4          	mov    %eax,-0x2c(%rsp)
  401606:	8b 44 24 f0          	mov    -0x10(%rsp),%eax
  40160a:	69 c0 b9 d2 00 00    	imul   $0xd2b9,%eax,%eax
  401610:	89 44 24 f0          	mov    %eax,-0x10(%rsp)
  401614:	8b 44 24 f0          	mov    -0x10(%rsp),%eax
  401618:	69 c0 0b 2b 00 00    	imul   $0x2b0b,%eax,%eax
  40161e:	89 44 24 f0          	mov    %eax,-0x10(%rsp)
  401622:	8b 44 24 e4          	mov    -0x1c(%rsp),%eax
  401626:	69 c0 11 bc 00 00    	imul   $0xbc11,%eax,%eax
  40162c:	89 44 24 e4          	mov    %eax,-0x1c(%rsp)
  401630:	8b 44 24 e4          	mov    -0x1c(%rsp),%eax
  401634:	69 c0 ed 1e 00 00    	imul   $0x1eed,%eax,%eax
  40163a:	89 44 24 e4          	mov    %eax,-0x1c(%rsp)
  40163e:	8b 44 24 e8          	mov    -0x18(%rsp),%eax
  401642:	69 c0 9e 8e 00 00    	imul   $0x8e9e,%eax,%eax
  401648:	89 44 24 e8          	mov    %eax,-0x18(%rsp)
  40164c:	8b 44 24 f0          	mov    -0x10(%rsp),%eax
  401650:	69 c0 09 9b 00 00    	imul   $0x9b09,%eax,%eax
  401656:	89 44 24 f0          	mov    %eax,-0x10(%rsp)
  40165a:	8b 44 24 f0          	mov    -0x10(%rsp),%eax
  40165e:	69 c0 91 cc 00 00    	imul   $0xcc91,%eax,%eax
  401664:	89 44 24 f0          	mov    %eax,-0x10(%rsp)
  401668:	8b 44 24 d8          	mov    -0x28(%rsp),%eax
  40166c:	69 c0 79 da 00 00    	imul   $0xda79,%eax,%eax
  401672:	89 44 24 d8          	mov    %eax,-0x28(%rsp)
  401676:	8b 44 24 e0          	mov    -0x20(%rsp),%eax
  40167a:	69 c0 ee 5a 00 00    	imul   $0x5aee,%eax,%eax
  401680:	89 44 24 e0          	mov    %eax,-0x20(%rsp)
  401684:	8b 44 24 d0          	mov    -0x30(%rsp),%eax
  401688:	69 c0 b6 4a 00 00    	imul   $0x4ab6,%eax,%eax
  40168e:	89 44 24 d0          	mov    %eax,-0x30(%rsp)
  401692:	8b 44 24 dc          	mov    -0x24(%rsp),%eax
  401696:	69 c0 84 ff 00 00    	imul   $0xff84,%eax,%eax
  40169c:	89 44 24 dc          	mov    %eax,-0x24(%rsp)
  4016a0:	8b 44 24 dc          	mov    -0x24(%rsp),%eax
  4016a4:	69 c0 f7 98 00 00    	imul   $0x98f7,%eax,%eax
  4016aa:	89 44 24 dc          	mov    %eax,-0x24(%rsp)
  4016ae:	8b 44 24 ec          	mov    -0x14(%rsp),%eax
  4016b2:	69 c0 43 ec 00 00    	imul   $0xec43,%eax,%eax
  4016b8:	89 44 24 ec          	mov    %eax,-0x14(%rsp)
  4016bc:	8b 44 24 f4          	mov    -0xc(%rsp),%eax
  4016c0:	69 c0 a0 7f 00 00    	imul   $0x7fa0,%eax,%eax
  4016c6:	89 44 24 f4          	mov    %eax,-0xc(%rsp)
  4016ca:	8b 44 24 ec          	mov    -0x14(%rsp),%eax
  4016ce:	69 c0 bb cd 00 00    	imul   $0xcdbb,%eax,%eax
  4016d4:	89 44 24 ec          	mov    %eax,-0x14(%rsp)
  4016d8:	8b 44 24 d4          	mov    -0x2c(%rsp),%eax
  4016dc:	69 c0 66 16 00 00    	imul   $0x1666,%eax,%eax
  4016e2:	89 44 24 d4          	mov    %eax,-0x2c(%rsp)
  4016e6:	8b 44 24 d4          	mov    -0x2c(%rsp),%eax
  4016ea:	69 c0 d9 78 00 00    	imul   $0x78d9,%eax,%eax
  4016f0:	89 44 24 d4          	mov    %eax,-0x2c(%rsp)
  4016f4:	8b 44 24 dc          	mov    -0x24(%rsp),%eax
  4016f8:	69 c0 27 97 00 00    	imul   $0x9727,%eax,%eax
  4016fe:	89 44 24 dc          	mov    %eax,-0x24(%rsp)
  401702:	8b 44 24 f4          	mov    -0xc(%rsp),%eax
  401706:	69 c0 2c d4 00 00    	imul   $0xd42c,%eax,%eax
  40170c:	89 44 24 f4          	mov    %eax,-0xc(%rsp)
  401710:	8b 44 24 d0          	mov    -0x30(%rsp),%eax
  401714:	69 c0 3a 6c 00 00    	imul   $0x6c3a,%eax,%eax
  40171a:	89 44 24 d0          	mov    %eax,-0x30(%rsp)
  40171e:	8b 44 24 e4          	mov    -0x1c(%rsp),%eax
  401722:	69 c0 bb fa 00 00    	imul   $0xfabb,%eax,%eax
  401728:	89 44 24 e4          	mov    %eax,-0x1c(%rsp)
  40172c:	8b 44 24 d8          	mov    -0x28(%rsp),%eax
  401730:	69 c0 f4 23 00 00    	imul   $0x23f4,%eax,%eax
  401736:	89 44 24 d8          	mov    %eax,-0x28(%rsp)
  40173a:	8b 44 24 d8          	mov    -0x28(%rsp),%eax
  40173e:	69 c0 b1 36 00 00    	imul   $0x36b1,%eax,%eax
  401744:	89 44 24 d8          	mov    %eax,-0x28(%rsp)
  401748:	8b 44 24 ec          	mov    -0x14(%rsp),%eax
  40174c:	69 c0 02 0e 00 00    	imul   $0xe02,%eax,%eax
  401752:	89 44 24 ec          	mov    %eax,-0x14(%rsp)
  401756:	8b 44 24 d8          	mov    -0x28(%rsp),%eax
  40175a:	69 c0 38 9f 00 00    	imul   $0x9f38,%eax,%eax
  401760:	89 44 24 d8          	mov    %eax,-0x28(%rsp)
  401764:	8b 44 24 e0          	mov    -0x20(%rsp),%eax
  401768:	69 c0 32 bf 00 00    	imul   $0xbf32,%eax,%eax
  40176e:	89 44 24 e0          	mov    %eax,-0x20(%rsp)
  401772:	8b 44 24 e4          	mov    -0x1c(%rsp),%eax
  401776:	69 c0 ff 38 00 00    	imul   $0x38ff,%eax,%eax
  40177c:	89 44 24 e4          	mov    %eax,-0x1c(%rsp)
  401780:	8b 44 24 e4          	mov    -0x1c(%rsp),%eax
  401784:	69 c0 2b 71 00 00    	imul   $0x712b,%eax,%eax
  40178a:	89 44 24 e4          	mov    %eax,-0x1c(%rsp)
  40178e:	8b 44 24 f4          	mov    -0xc(%rsp),%eax
  401792:	69 c0 9c c7 00 00    	imul   $0xc79c,%eax,%eax
  401798:	89 44 24 f4          	mov    %eax,-0xc(%rsp)
  40179c:	8b 44 24 dc          	mov    -0x24(%rsp),%eax
  4017a0:	69 c0 8a 3a 00 00    	imul   $0x3a8a,%eax,%eax
  4017a6:	89 44 24 dc          	mov    %eax,-0x24(%rsp)
  4017aa:	8b 44 24 f4          	mov    -0xc(%rsp),%eax
  4017ae:	69 c0 34 54 00 00    	imul   $0x5434,%eax,%eax
  4017b4:	89 44 24 f4          	mov    %eax,-0xc(%rsp)
  4017b8:	8b 44 24 e8          	mov    -0x18(%rsp),%eax
  4017bc:	69 c0 cc 35 00 00    	imul   $0x35cc,%eax,%eax
  4017c2:	89 44 24 e8          	mov    %eax,-0x18(%rsp)
  4017c6:	8b 44 24 f0          	mov    -0x10(%rsp),%eax
  4017ca:	69 c0 62 92 00 00    	imul   $0x9262,%eax,%eax
  4017d0:	89 44 24 f0          	mov    %eax,-0x10(%rsp)
  4017d4:	8b 44 24 f4          	mov    -0xc(%rsp),%eax
  4017d8:	69 c0 f9 01 00 00    	imul   $0x1f9,%eax,%eax
  4017de:	89 44 24 f4          	mov    %eax,-0xc(%rsp)
  4017e2:	8b 44 24 d4          	mov    -0x2c(%rsp),%eax
  4017e6:	69 c0 09 83 00 00    	imul   $0x8309,%eax,%eax
  4017ec:	89 44 24 d4          	mov    %eax,-0x2c(%rsp)
  4017f0:	8b 44 24 e8          	mov    -0x18(%rsp),%eax
  4017f4:	69 c0 59 c9 00 00    	imul   $0xc959,%eax,%eax
  4017fa:	89 44 24 e8          	mov    %eax,-0x18(%rsp)
  4017fe:	8b 44 24 d8          	mov    -0x28(%rsp),%eax
  401802:	69 c0 76 75 00 00    	imul   $0x7576,%eax,%eax
  401808:	89 44 24 d8          	mov    %eax,-0x28(%rsp)
  40180c:	8b 44 24 dc          	mov    -0x24(%rsp),%eax
  401810:	69 c0 11 45 00 00    	imul   $0x4511,%eax,%eax
  401816:	89 44 24 dc          	mov    %eax,-0x24(%rsp)
  40181a:	8b 44 24 e4          	mov    -0x1c(%rsp),%eax
  40181e:	69 c0 bc eb 00 00    	imul   $0xebbc,%eax,%eax
  401824:	89 44 24 e4          	mov    %eax,-0x1c(%rsp)
  401828:	8b 44 24 e0          	mov    -0x20(%rsp),%eax
  40182c:	69 c0 c7 3d 00 00    	imul   $0x3dc7,%eax,%eax
  401832:	89 44 24 e0          	mov    %eax,-0x20(%rsp)
  401836:	8b 44 24 f4          	mov    -0xc(%rsp),%eax
  40183a:	69 c0 cc ab 00 00    	imul   $0xabcc,%eax,%eax
  401840:	89 44 24 f4          	mov    %eax,-0xc(%rsp)
  401844:	ba 00 00 00 00       	mov    $0x0,%edx
  401849:	b8 00 00 00 00       	mov    $0x0,%eax
  40184e:	83 fa 09             	cmp    $0x9,%edx
  401851:	77 0d                	ja     401860 <scramble+0x579>
  401853:	89 d1                	mov    %edx,%ecx
  401855:	8b 4c 8c d0          	mov    -0x30(%rsp,%rcx,4),%ecx
  401859:	01 c8                	add    %ecx,%eax
  40185b:	83 c2 01             	add    $0x1,%edx
  40185e:	eb ee                	jmp    40184e <scramble+0x567>
  401860:	c3                   	retq   

0000000000401861 <getbuf>:
  401861:	48 83 ec 28          	sub    $0x28,%rsp
  401865:	48 89 e7             	mov    %rsp,%rdi
  401868:	e8 2c 02 00 00       	callq  401a99 <Gets>
  40186d:	b8 01 00 00 00       	mov    $0x1,%eax
  401872:	48 83 c4 28          	add    $0x28,%rsp
  401876:	c3                   	retq   

0000000000401877 <touch1>:
  401877:	48 83 ec 08          	sub    $0x8,%rsp
  40187b:	c7 05 77 2c 20 00 01 	movl   $0x1,0x202c77(%rip)        # 6044fc <vlevel>
  401882:	00 00 00 
  401885:	bf 2a 30 40 00       	mov    $0x40302a,%edi
  40188a:	e8 41 f4 ff ff       	callq  400cd0 <puts@plt>
  40188f:	bf 01 00 00 00       	mov    $0x1,%edi
  401894:	e8 f3 03 00 00       	callq  401c8c <validate>
  401899:	bf 00 00 00 00       	mov    $0x0,%edi
  40189e:	e8 9d f5 ff ff       	callq  400e40 <exit@plt>

00000000004018a3 <touch2>:
  4018a3:	48 83 ec 08          	sub    $0x8,%rsp
  4018a7:	89 fe                	mov    %edi,%esi
  4018a9:	c7 05 49 2c 20 00 02 	movl   $0x2,0x202c49(%rip)        # 6044fc <vlevel>
  4018b0:	00 00 00 
  4018b3:	39 3d 4b 2c 20 00    	cmp    %edi,0x202c4b(%rip)        # 604504 <cookie>
  4018b9:	74 23                	je     4018de <touch2+0x3b>
  4018bb:	bf 78 30 40 00       	mov    $0x403078,%edi
  4018c0:	b8 00 00 00 00       	mov    $0x0,%eax
  4018c5:	e8 36 f4 ff ff       	callq  400d00 <printf@plt>
  4018ca:	bf 02 00 00 00       	mov    $0x2,%edi
  4018cf:	e8 6a 04 00 00       	callq  401d3e <fail>
  4018d4:	bf 00 00 00 00       	mov    $0x0,%edi
  4018d9:	e8 62 f5 ff ff       	callq  400e40 <exit@plt>
  4018de:	bf 50 30 40 00       	mov    $0x403050,%edi
  4018e3:	b8 00 00 00 00       	mov    $0x0,%eax
  4018e8:	e8 13 f4 ff ff       	callq  400d00 <printf@plt>
  4018ed:	bf 02 00 00 00       	mov    $0x2,%edi
  4018f2:	e8 95 03 00 00       	callq  401c8c <validate>
  4018f7:	eb db                	jmp    4018d4 <touch2+0x31>

00000000004018f9 <hexmatch>:
  4018f9:	41 54                	push   %r12
  4018fb:	55                   	push   %rbp
  4018fc:	53                   	push   %rbx
  4018fd:	48 83 ec 70          	sub    $0x70,%rsp
  401901:	89 fd                	mov    %edi,%ebp
  401903:	48 89 f3             	mov    %rsi,%rbx
  401906:	e8 a5 f4 ff ff       	callq  400db0 <random@plt>
  40190b:	48 89 c1             	mov    %rax,%rcx
  40190e:	48 ba 0b d7 a3 70 3d 	movabs $0xa3d70a3d70a3d70b,%rdx
  401915:	0a d7 a3 
  401918:	48 f7 ea             	imul   %rdx
  40191b:	48 01 ca             	add    %rcx,%rdx
  40191e:	48 c1 fa 06          	sar    $0x6,%rdx
  401922:	48 89 c8             	mov    %rcx,%rax
  401925:	48 c1 f8 3f          	sar    $0x3f,%rax
  401929:	48 29 c2             	sub    %rax,%rdx
  40192c:	48 8d 04 92          	lea    (%rdx,%rdx,4),%rax
  401930:	48 8d 14 80          	lea    (%rax,%rax,4),%rdx
  401934:	48 8d 04 95 00 00 00 	lea    0x0(,%rdx,4),%rax
  40193b:	00 
  40193c:	48 29 c1             	sub    %rax,%rcx
  40193f:	4c 8d 24 0c          	lea    (%rsp,%rcx,1),%r12
  401943:	89 ea                	mov    %ebp,%edx
  401945:	be 47 30 40 00       	mov    $0x403047,%esi
  40194a:	4c 89 e7             	mov    %r12,%rdi
  40194d:	b8 00 00 00 00       	mov    $0x0,%eax
  401952:	e8 d9 f4 ff ff       	callq  400e30 <sprintf@plt>
  401957:	ba 09 00 00 00       	mov    $0x9,%edx
  40195c:	4c 89 e6             	mov    %r12,%rsi
  40195f:	48 89 df             	mov    %rbx,%rdi
  401962:	e8 49 f3 ff ff       	callq  400cb0 <strncmp@plt>
  401967:	85 c0                	test   %eax,%eax
  401969:	0f 94 c0             	sete   %al
  40196c:	0f b6 c0             	movzbl %al,%eax
  40196f:	48 83 c4 70          	add    $0x70,%rsp
  401973:	5b                   	pop    %rbx
  401974:	5d                   	pop    %rbp
  401975:	41 5c                	pop    %r12
  401977:	c3                   	retq   

0000000000401978 <touch3>:
  401978:	53                   	push   %rbx
  401979:	48 89 fb             	mov    %rdi,%rbx
  40197c:	c7 05 76 2b 20 00 03 	movl   $0x3,0x202b76(%rip)        # 6044fc <vlevel>
  401983:	00 00 00 
  401986:	48 89 fe             	mov    %rdi,%rsi
  401989:	8b 3d 75 2b 20 00    	mov    0x202b75(%rip),%edi        # 604504 <cookie>
  40198f:	e8 65 ff ff ff       	callq  4018f9 <hexmatch>
  401994:	85 c0                	test   %eax,%eax
  401996:	74 26                	je     4019be <touch3+0x46>
  401998:	48 89 de             	mov    %rbx,%rsi
  40199b:	bf a0 30 40 00       	mov    $0x4030a0,%edi
  4019a0:	b8 00 00 00 00       	mov    $0x0,%eax
  4019a5:	e8 56 f3 ff ff       	callq  400d00 <printf@plt>
  4019aa:	bf 03 00 00 00       	mov    $0x3,%edi
  4019af:	e8 d8 02 00 00       	callq  401c8c <validate>
  4019b4:	bf 00 00 00 00       	mov    $0x0,%edi
  4019b9:	e8 82 f4 ff ff       	callq  400e40 <exit@plt>
  4019be:	48 89 de             	mov    %rbx,%rsi
  4019c1:	bf c8 30 40 00       	mov    $0x4030c8,%edi
  4019c6:	b8 00 00 00 00       	mov    $0x0,%eax
  4019cb:	e8 30 f3 ff ff       	callq  400d00 <printf@plt>
  4019d0:	bf 03 00 00 00       	mov    $0x3,%edi
  4019d5:	e8 64 03 00 00       	callq  401d3e <fail>
  4019da:	eb d8                	jmp    4019b4 <touch3+0x3c>

00000000004019dc <test>:
  4019dc:	48 83 ec 08          	sub    $0x8,%rsp
  4019e0:	b8 00 00 00 00       	mov    $0x0,%eax
  4019e5:	e8 77 fe ff ff       	callq  401861 <getbuf>
  4019ea:	89 c6                	mov    %eax,%esi
  4019ec:	bf f0 30 40 00       	mov    $0x4030f0,%edi
  4019f1:	b8 00 00 00 00       	mov    $0x0,%eax
  4019f6:	e8 05 f3 ff ff       	callq  400d00 <printf@plt>
  4019fb:	48 83 c4 08          	add    $0x8,%rsp
  4019ff:	c3                   	retq   

0000000000401a00 <save_char>:
  401a00:	8b 05 1e 37 20 00    	mov    0x20371e(%rip),%eax        # 605124 <gets_cnt>
  401a06:	3d ff 03 00 00       	cmp    $0x3ff,%eax
  401a0b:	7f 49                	jg     401a56 <save_char+0x56>
  401a0d:	89 f9                	mov    %edi,%ecx
  401a0f:	c0 e9 04             	shr    $0x4,%cl
  401a12:	8d 14 40             	lea    (%rax,%rax,2),%edx
  401a15:	83 e1 0f             	and    $0xf,%ecx
  401a18:	0f b6 b1 10 34 40 00 	movzbl 0x403410(%rcx),%esi
  401a1f:	48 63 ca             	movslq %edx,%rcx
  401a22:	40 88 b1 20 45 60 00 	mov    %sil,0x604520(%rcx)
  401a29:	8d 4a 01             	lea    0x1(%rdx),%ecx
  401a2c:	83 e7 0f             	and    $0xf,%edi
  401a2f:	0f b6 b7 10 34 40 00 	movzbl 0x403410(%rdi),%esi
  401a36:	48 63 c9             	movslq %ecx,%rcx
  401a39:	40 88 b1 20 45 60 00 	mov    %sil,0x604520(%rcx)
  401a40:	83 c2 02             	add    $0x2,%edx
  401a43:	48 63 d2             	movslq %edx,%rdx
  401a46:	c6 82 20 45 60 00 20 	movb   $0x20,0x604520(%rdx)
  401a4d:	83 c0 01             	add    $0x1,%eax
  401a50:	89 05 ce 36 20 00    	mov    %eax,0x2036ce(%rip)        # 605124 <gets_cnt>
  401a56:	c3                   	retq   

0000000000401a57 <save_term>:
  401a57:	8b 05 c7 36 20 00    	mov    0x2036c7(%rip),%eax        # 605124 <gets_cnt>
  401a5d:	8d 04 40             	lea    (%rax,%rax,2),%eax
  401a60:	48 98                	cltq   
  401a62:	c6 80 20 45 60 00 00 	movb   $0x0,0x604520(%rax)
  401a69:	c3                   	retq   

0000000000401a6a <check_fail>:
  401a6a:	48 83 ec 08          	sub    $0x8,%rsp
  401a6e:	0f be 35 b3 36 20 00 	movsbl 0x2036b3(%rip),%esi        # 605128 <target_prefix>
  401a75:	b9 20 45 60 00       	mov    $0x604520,%ecx
  401a7a:	8b 15 78 2a 20 00    	mov    0x202a78(%rip),%edx        # 6044f8 <check_level>
  401a80:	bf 13 31 40 00       	mov    $0x403113,%edi
  401a85:	b8 00 00 00 00       	mov    $0x0,%eax
  401a8a:	e8 71 f2 ff ff       	callq  400d00 <printf@plt>
  401a8f:	bf 01 00 00 00       	mov    $0x1,%edi
  401a94:	e8 a7 f3 ff ff       	callq  400e40 <exit@plt>

0000000000401a99 <Gets>:
  401a99:	41 54                	push   %r12
  401a9b:	55                   	push   %rbp
  401a9c:	53                   	push   %rbx
  401a9d:	49 89 fc             	mov    %rdi,%r12
  401aa0:	c7 05 7a 36 20 00 00 	movl   $0x0,0x20367a(%rip)        # 605124 <gets_cnt>
  401aa7:	00 00 00 
  401aaa:	48 89 fb             	mov    %rdi,%rbx
  401aad:	48 8b 3d 3c 2a 20 00 	mov    0x202a3c(%rip),%rdi        # 6044f0 <infile>
  401ab4:	e8 a7 f3 ff ff       	callq  400e60 <getc@plt>
  401ab9:	83 f8 ff             	cmp    $0xffffffff,%eax
  401abc:	74 18                	je     401ad6 <Gets+0x3d>
  401abe:	83 f8 0a             	cmp    $0xa,%eax
  401ac1:	74 13                	je     401ad6 <Gets+0x3d>
  401ac3:	48 8d 6b 01          	lea    0x1(%rbx),%rbp
  401ac7:	88 03                	mov    %al,(%rbx)
  401ac9:	0f b6 f8             	movzbl %al,%edi
  401acc:	e8 2f ff ff ff       	callq  401a00 <save_char>
  401ad1:	48 89 eb             	mov    %rbp,%rbx
  401ad4:	eb d7                	jmp    401aad <Gets+0x14>
  401ad6:	c6 03 00             	movb   $0x0,(%rbx)
  401ad9:	b8 00 00 00 00       	mov    $0x0,%eax
  401ade:	e8 74 ff ff ff       	callq  401a57 <save_term>
  401ae3:	4c 89 e0             	mov    %r12,%rax
  401ae6:	5b                   	pop    %rbx
  401ae7:	5d                   	pop    %rbp
  401ae8:	41 5c                	pop    %r12
  401aea:	c3                   	retq   

0000000000401aeb <notify_server>:
  401aeb:	83 3d 16 2a 20 00 00 	cmpl   $0x0,0x202a16(%rip)        # 604508 <is_checker>
  401af2:	0f 85 93 01 00 00    	jne    401c8b <notify_server+0x1a0>
  401af8:	55                   	push   %rbp
  401af9:	53                   	push   %rbx
  401afa:	48 81 ec 08 40 00 00 	sub    $0x4008,%rsp
  401b01:	89 fb                	mov    %edi,%ebx
  401b03:	81 3d 17 36 20 00 9c 	cmpl   $0x1f9c,0x203617(%rip)        # 605124 <gets_cnt>
  401b0a:	1f 00 00 
  401b0d:	0f 8f ad 00 00 00    	jg     401bc0 <notify_server+0xd5>
  401b13:	44 0f be 0d 0d 36 20 	movsbl 0x20360d(%rip),%r9d        # 605128 <target_prefix>
  401b1a:	00 
  401b1b:	83 3d 66 29 20 00 00 	cmpl   $0x0,0x202966(%rip)        # 604488 <notify>
  401b22:	0f 84 b1 00 00 00    	je     401bd9 <notify_server+0xee>
  401b28:	44 8b 05 d1 29 20 00 	mov    0x2029d1(%rip),%r8d        # 604500 <authkey>
  401b2f:	85 db                	test   %ebx,%ebx
  401b31:	0f 84 ad 00 00 00    	je     401be4 <notify_server+0xf9>
  401b37:	bd 29 31 40 00       	mov    $0x403129,%ebp
  401b3c:	68 20 45 60 00       	pushq  $0x604520
  401b41:	56                   	push   %rsi
  401b42:	48 89 e9             	mov    %rbp,%rcx
  401b45:	8b 15 fd 25 20 00    	mov    0x2025fd(%rip),%edx        # 604148 <target_id>
  401b4b:	be 33 31 40 00       	mov    $0x403133,%esi
  401b50:	48 8d bc 24 10 20 00 	lea    0x2010(%rsp),%rdi
  401b57:	00 
  401b58:	b8 00 00 00 00       	mov    $0x0,%eax
  401b5d:	e8 ce f2 ff ff       	callq  400e30 <sprintf@plt>
  401b62:	48 83 c4 10          	add    $0x10,%rsp
  401b66:	83 3d 1b 29 20 00 00 	cmpl   $0x0,0x20291b(%rip)        # 604488 <notify>
  401b6d:	0f 84 ab 00 00 00    	je     401c1e <notify_server+0x133>
  401b73:	85 db                	test   %ebx,%ebx
  401b75:	0f 84 8f 00 00 00    	je     401c0a <notify_server+0x11f>
  401b7b:	49 89 e1             	mov    %rsp,%r9
  401b7e:	41 b8 00 00 00 00    	mov    $0x0,%r8d
  401b84:	48 8d 8c 24 00 20 00 	lea    0x2000(%rsp),%rcx
  401b8b:	00 
  401b8c:	48 8b 15 bd 25 20 00 	mov    0x2025bd(%rip),%rdx        # 604150 <lab>
  401b93:	48 8b 35 be 25 20 00 	mov    0x2025be(%rip),%rsi        # 604158 <course>
  401b9a:	48 8b 3d 9f 25 20 00 	mov    0x20259f(%rip),%rdi        # 604140 <user_id>
  401ba1:	e8 e5 0f 00 00       	callq  402b8b <driver_post>
  401ba6:	85 c0                	test   %eax,%eax
  401ba8:	78 44                	js     401bee <notify_server+0x103>
  401baa:	bf 78 32 40 00       	mov    $0x403278,%edi
  401baf:	e8 1c f1 ff ff       	callq  400cd0 <puts@plt>
  401bb4:	bf 5b 31 40 00       	mov    $0x40315b,%edi
  401bb9:	e8 12 f1 ff ff       	callq  400cd0 <puts@plt>
  401bbe:	eb 54                	jmp    401c14 <notify_server+0x129>
  401bc0:	bf 48 32 40 00       	mov    $0x403248,%edi
  401bc5:	b8 00 00 00 00       	mov    $0x0,%eax
  401bca:	e8 31 f1 ff ff       	callq  400d00 <printf@plt>
  401bcf:	bf 01 00 00 00       	mov    $0x1,%edi
  401bd4:	e8 67 f2 ff ff       	callq  400e40 <exit@plt>
  401bd9:	41 b8 ff ff ff ff    	mov    $0xffffffff,%r8d
  401bdf:	e9 4b ff ff ff       	jmpq   401b2f <notify_server+0x44>
  401be4:	bd 2e 31 40 00       	mov    $0x40312e,%ebp
  401be9:	e9 4e ff ff ff       	jmpq   401b3c <notify_server+0x51>
  401bee:	48 89 e6             	mov    %rsp,%rsi
  401bf1:	bf 4f 31 40 00       	mov    $0x40314f,%edi
  401bf6:	b8 00 00 00 00       	mov    $0x0,%eax
  401bfb:	e8 00 f1 ff ff       	callq  400d00 <printf@plt>
  401c00:	bf 01 00 00 00       	mov    $0x1,%edi
  401c05:	e8 36 f2 ff ff       	callq  400e40 <exit@plt>
  401c0a:	bf 65 31 40 00       	mov    $0x403165,%edi
  401c0f:	e8 bc f0 ff ff       	callq  400cd0 <puts@plt>
  401c14:	48 81 c4 08 40 00 00 	add    $0x4008,%rsp
  401c1b:	5b                   	pop    %rbx
  401c1c:	5d                   	pop    %rbp
  401c1d:	c3                   	retq   
  401c1e:	48 89 ee             	mov    %rbp,%rsi
  401c21:	bf b0 32 40 00       	mov    $0x4032b0,%edi
  401c26:	b8 00 00 00 00       	mov    $0x0,%eax
  401c2b:	e8 d0 f0 ff ff       	callq  400d00 <printf@plt>
  401c30:	48 8b 35 09 25 20 00 	mov    0x202509(%rip),%rsi        # 604140 <user_id>
  401c37:	bf 6c 31 40 00       	mov    $0x40316c,%edi
  401c3c:	b8 00 00 00 00       	mov    $0x0,%eax
  401c41:	e8 ba f0 ff ff       	callq  400d00 <printf@plt>
  401c46:	48 8b 35 0b 25 20 00 	mov    0x20250b(%rip),%rsi        # 604158 <course>
  401c4d:	bf 79 31 40 00       	mov    $0x403179,%edi
  401c52:	b8 00 00 00 00       	mov    $0x0,%eax
  401c57:	e8 a4 f0 ff ff       	callq  400d00 <printf@plt>
  401c5c:	48 8b 35 ed 24 20 00 	mov    0x2024ed(%rip),%rsi        # 604150 <lab>
  401c63:	bf 85 31 40 00       	mov    $0x403185,%edi
  401c68:	b8 00 00 00 00       	mov    $0x0,%eax
  401c6d:	e8 8e f0 ff ff       	callq  400d00 <printf@plt>
  401c72:	48 8d b4 24 00 20 00 	lea    0x2000(%rsp),%rsi
  401c79:	00 
  401c7a:	bf 8e 31 40 00       	mov    $0x40318e,%edi
  401c7f:	b8 00 00 00 00       	mov    $0x0,%eax
  401c84:	e8 77 f0 ff ff       	callq  400d00 <printf@plt>
  401c89:	eb 89                	jmp    401c14 <notify_server+0x129>
  401c8b:	c3                   	retq   

0000000000401c8c <validate>:
  401c8c:	53                   	push   %rbx
  401c8d:	89 fb                	mov    %edi,%ebx
  401c8f:	83 3d 72 28 20 00 00 	cmpl   $0x0,0x202872(%rip)        # 604508 <is_checker>
  401c96:	74 60                	je     401cf8 <validate+0x6c>
  401c98:	39 3d 5e 28 20 00    	cmp    %edi,0x20285e(%rip)        # 6044fc <vlevel>
  401c9e:	75 29                	jne    401cc9 <validate+0x3d>
  401ca0:	8b 35 52 28 20 00    	mov    0x202852(%rip),%esi        # 6044f8 <check_level>
  401ca6:	39 fe                	cmp    %edi,%esi
  401ca8:	75 33                	jne    401cdd <validate+0x51>
  401caa:	0f be 35 77 34 20 00 	movsbl 0x203477(%rip),%esi        # 605128 <target_prefix>
  401cb1:	b9 20 45 60 00       	mov    $0x604520,%ecx
  401cb6:	89 fa                	mov    %edi,%edx
  401cb8:	bf b8 31 40 00       	mov    $0x4031b8,%edi
  401cbd:	b8 00 00 00 00       	mov    $0x0,%eax
  401cc2:	e8 39 f0 ff ff       	callq  400d00 <printf@plt>
  401cc7:	5b                   	pop    %rbx
  401cc8:	c3                   	retq   
  401cc9:	bf 9a 31 40 00       	mov    $0x40319a,%edi
  401cce:	e8 fd ef ff ff       	callq  400cd0 <puts@plt>
  401cd3:	b8 00 00 00 00       	mov    $0x0,%eax
  401cd8:	e8 8d fd ff ff       	callq  401a6a <check_fail>
  401cdd:	89 fa                	mov    %edi,%edx
  401cdf:	bf d8 32 40 00       	mov    $0x4032d8,%edi
  401ce4:	b8 00 00 00 00       	mov    $0x0,%eax
  401ce9:	e8 12 f0 ff ff       	callq  400d00 <printf@plt>
  401cee:	b8 00 00 00 00       	mov    $0x0,%eax
  401cf3:	e8 72 fd ff ff       	callq  401a6a <check_fail>
  401cf8:	39 3d fe 27 20 00    	cmp    %edi,0x2027fe(%rip)        # 6044fc <vlevel>
  401cfe:	74 18                	je     401d18 <validate+0x8c>
  401d00:	bf 9a 31 40 00       	mov    $0x40319a,%edi
  401d05:	e8 c6 ef ff ff       	callq  400cd0 <puts@plt>
  401d0a:	89 de                	mov    %ebx,%esi
  401d0c:	bf 00 00 00 00       	mov    $0x0,%edi
  401d11:	e8 d5 fd ff ff       	callq  401aeb <notify_server>
  401d16:	eb af                	jmp    401cc7 <validate+0x3b>
  401d18:	0f be 15 09 34 20 00 	movsbl 0x203409(%rip),%edx        # 605128 <target_prefix>
  401d1f:	89 fe                	mov    %edi,%esi
  401d21:	bf 00 33 40 00       	mov    $0x403300,%edi
  401d26:	b8 00 00 00 00       	mov    $0x0,%eax
  401d2b:	e8 d0 ef ff ff       	callq  400d00 <printf@plt>
  401d30:	89 de                	mov    %ebx,%esi
  401d32:	bf 01 00 00 00       	mov    $0x1,%edi
  401d37:	e8 af fd ff ff       	callq  401aeb <notify_server>
  401d3c:	eb 89                	jmp    401cc7 <validate+0x3b>

0000000000401d3e <fail>:
  401d3e:	48 83 ec 08          	sub    $0x8,%rsp
  401d42:	83 3d bf 27 20 00 00 	cmpl   $0x0,0x2027bf(%rip)        # 604508 <is_checker>
  401d49:	75 11                	jne    401d5c <fail+0x1e>
  401d4b:	89 fe                	mov    %edi,%esi
  401d4d:	bf 00 00 00 00       	mov    $0x0,%edi
  401d52:	e8 94 fd ff ff       	callq  401aeb <notify_server>
  401d57:	48 83 c4 08          	add    $0x8,%rsp
  401d5b:	c3                   	retq   
  401d5c:	b8 00 00 00 00       	mov    $0x0,%eax
  401d61:	e8 04 fd ff ff       	callq  401a6a <check_fail>

0000000000401d66 <bushandler>:
  401d66:	48 83 ec 08          	sub    $0x8,%rsp
  401d6a:	83 3d 97 27 20 00 00 	cmpl   $0x0,0x202797(%rip)        # 604508 <is_checker>
  401d71:	74 14                	je     401d87 <bushandler+0x21>
  401d73:	bf cd 31 40 00       	mov    $0x4031cd,%edi
  401d78:	e8 53 ef ff ff       	callq  400cd0 <puts@plt>
  401d7d:	b8 00 00 00 00       	mov    $0x0,%eax
  401d82:	e8 e3 fc ff ff       	callq  401a6a <check_fail>
  401d87:	bf 38 33 40 00       	mov    $0x403338,%edi
  401d8c:	e8 3f ef ff ff       	callq  400cd0 <puts@plt>
  401d91:	bf d7 31 40 00       	mov    $0x4031d7,%edi
  401d96:	e8 35 ef ff ff       	callq  400cd0 <puts@plt>
  401d9b:	be 00 00 00 00       	mov    $0x0,%esi
  401da0:	bf 00 00 00 00       	mov    $0x0,%edi
  401da5:	e8 41 fd ff ff       	callq  401aeb <notify_server>
  401daa:	bf 01 00 00 00       	mov    $0x1,%edi
  401daf:	e8 8c f0 ff ff       	callq  400e40 <exit@plt>

0000000000401db4 <seghandler>:
  401db4:	48 83 ec 08          	sub    $0x8,%rsp
  401db8:	83 3d 49 27 20 00 00 	cmpl   $0x0,0x202749(%rip)        # 604508 <is_checker>
  401dbf:	74 14                	je     401dd5 <seghandler+0x21>
  401dc1:	bf ed 31 40 00       	mov    $0x4031ed,%edi
  401dc6:	e8 05 ef ff ff       	callq  400cd0 <puts@plt>
  401dcb:	b8 00 00 00 00       	mov    $0x0,%eax
  401dd0:	e8 95 fc ff ff       	callq  401a6a <check_fail>
  401dd5:	bf 58 33 40 00       	mov    $0x403358,%edi
  401dda:	e8 f1 ee ff ff       	callq  400cd0 <puts@plt>
  401ddf:	bf d7 31 40 00       	mov    $0x4031d7,%edi
  401de4:	e8 e7 ee ff ff       	callq  400cd0 <puts@plt>
  401de9:	be 00 00 00 00       	mov    $0x0,%esi
  401dee:	bf 00 00 00 00       	mov    $0x0,%edi
  401df3:	e8 f3 fc ff ff       	callq  401aeb <notify_server>
  401df8:	bf 01 00 00 00       	mov    $0x1,%edi
  401dfd:	e8 3e f0 ff ff       	callq  400e40 <exit@plt>

0000000000401e02 <illegalhandler>:
  401e02:	48 83 ec 08          	sub    $0x8,%rsp
  401e06:	83 3d fb 26 20 00 00 	cmpl   $0x0,0x2026fb(%rip)        # 604508 <is_checker>
  401e0d:	74 14                	je     401e23 <illegalhandler+0x21>
  401e0f:	bf 00 32 40 00       	mov    $0x403200,%edi
  401e14:	e8 b7 ee ff ff       	callq  400cd0 <puts@plt>
  401e19:	b8 00 00 00 00       	mov    $0x0,%eax
  401e1e:	e8 47 fc ff ff       	callq  401a6a <check_fail>
  401e23:	bf 80 33 40 00       	mov    $0x403380,%edi
  401e28:	e8 a3 ee ff ff       	callq  400cd0 <puts@plt>
  401e2d:	bf d7 31 40 00       	mov    $0x4031d7,%edi
  401e32:	e8 99 ee ff ff       	callq  400cd0 <puts@plt>
  401e37:	be 00 00 00 00       	mov    $0x0,%esi
  401e3c:	bf 00 00 00 00       	mov    $0x0,%edi
  401e41:	e8 a5 fc ff ff       	callq  401aeb <notify_server>
  401e46:	bf 01 00 00 00       	mov    $0x1,%edi
  401e4b:	e8 f0 ef ff ff       	callq  400e40 <exit@plt>

0000000000401e50 <sigalrmhandler>:
  401e50:	48 83 ec 08          	sub    $0x8,%rsp
  401e54:	83 3d ad 26 20 00 00 	cmpl   $0x0,0x2026ad(%rip)        # 604508 <is_checker>
  401e5b:	74 14                	je     401e71 <sigalrmhandler+0x21>
  401e5d:	bf 14 32 40 00       	mov    $0x403214,%edi
  401e62:	e8 69 ee ff ff       	callq  400cd0 <puts@plt>
  401e67:	b8 00 00 00 00       	mov    $0x0,%eax
  401e6c:	e8 f9 fb ff ff       	callq  401a6a <check_fail>
  401e71:	be 05 00 00 00       	mov    $0x5,%esi
  401e76:	bf b0 33 40 00       	mov    $0x4033b0,%edi
  401e7b:	b8 00 00 00 00       	mov    $0x0,%eax
  401e80:	e8 7b ee ff ff       	callq  400d00 <printf@plt>
  401e85:	be 00 00 00 00       	mov    $0x0,%esi
  401e8a:	bf 00 00 00 00       	mov    $0x0,%edi
  401e8f:	e8 57 fc ff ff       	callq  401aeb <notify_server>
  401e94:	bf 01 00 00 00       	mov    $0x1,%edi
  401e99:	e8 a2 ef ff ff       	callq  400e40 <exit@plt>

0000000000401e9e <launch>:
  401e9e:	55                   	push   %rbp
  401e9f:	48 89 e5             	mov    %rsp,%rbp
  401ea2:	48 89 fa             	mov    %rdi,%rdx
  401ea5:	48 8d 47 17          	lea    0x17(%rdi),%rax
  401ea9:	48 83 e0 f0          	and    $0xfffffffffffffff0,%rax
  401ead:	48 29 c4             	sub    %rax,%rsp
  401eb0:	48 8d 7c 24 0f       	lea    0xf(%rsp),%rdi
  401eb5:	48 83 e7 f0          	and    $0xfffffffffffffff0,%rdi
  401eb9:	be f4 00 00 00       	mov    $0xf4,%esi
  401ebe:	e8 4d ee ff ff       	callq  400d10 <memset@plt>
  401ec3:	48 8b 05 d6 25 20 00 	mov    0x2025d6(%rip),%rax        # 6044a0 <stdin@@GLIBC_2.2.5>
  401eca:	48 39 05 1f 26 20 00 	cmp    %rax,0x20261f(%rip)        # 6044f0 <infile>
  401ed1:	74 29                	je     401efc <launch+0x5e>
  401ed3:	c7 05 1f 26 20 00 00 	movl   $0x0,0x20261f(%rip)        # 6044fc <vlevel>
  401eda:	00 00 00 
  401edd:	b8 00 00 00 00       	mov    $0x0,%eax
  401ee2:	e8 f5 fa ff ff       	callq  4019dc <test>
  401ee7:	83 3d 1a 26 20 00 00 	cmpl   $0x0,0x20261a(%rip)        # 604508 <is_checker>
  401eee:	75 1d                	jne    401f0d <launch+0x6f>
  401ef0:	bf 34 32 40 00       	mov    $0x403234,%edi
  401ef5:	e8 d6 ed ff ff       	callq  400cd0 <puts@plt>
  401efa:	c9                   	leaveq 
  401efb:	c3                   	retq   
  401efc:	bf 1c 32 40 00       	mov    $0x40321c,%edi
  401f01:	b8 00 00 00 00       	mov    $0x0,%eax
  401f06:	e8 f5 ed ff ff       	callq  400d00 <printf@plt>
  401f0b:	eb c6                	jmp    401ed3 <launch+0x35>
  401f0d:	bf 29 32 40 00       	mov    $0x403229,%edi
  401f12:	e8 b9 ed ff ff       	callq  400cd0 <puts@plt>
  401f17:	b8 00 00 00 00       	mov    $0x0,%eax
  401f1c:	e8 49 fb ff ff       	callq  401a6a <check_fail>

0000000000401f21 <stable_launch>:
  401f21:	53                   	push   %rbx
  401f22:	48 89 3d bf 25 20 00 	mov    %rdi,0x2025bf(%rip)        # 6044e8 <global_offset>
  401f29:	41 b9 00 00 00 00    	mov    $0x0,%r9d
  401f2f:	41 b8 00 00 00 00    	mov    $0x0,%r8d
  401f35:	b9 32 01 00 00       	mov    $0x132,%ecx
  401f3a:	ba 07 00 00 00       	mov    $0x7,%edx
  401f3f:	be 00 00 10 00       	mov    $0x100000,%esi
  401f44:	bf 00 60 58 55       	mov    $0x55586000,%edi
  401f49:	e8 a2 ed ff ff       	callq  400cf0 <mmap@plt>
  401f4e:	48 89 c3             	mov    %rax,%rbx
  401f51:	48 3d 00 60 58 55    	cmp    $0x55586000,%rax
  401f57:	75 43                	jne    401f9c <stable_launch+0x7b>
  401f59:	48 8d 90 f8 ff 0f 00 	lea    0xffff8(%rax),%rdx
  401f60:	48 89 15 c9 31 20 00 	mov    %rdx,0x2031c9(%rip)        # 605130 <stack_top>
  401f67:	48 89 e0             	mov    %rsp,%rax
  401f6a:	48 89 d4             	mov    %rdx,%rsp
  401f6d:	48 89 c2             	mov    %rax,%rdx
  401f70:	48 89 15 69 25 20 00 	mov    %rdx,0x202569(%rip)        # 6044e0 <global_save_stack>
  401f77:	48 8b 3d 6a 25 20 00 	mov    0x20256a(%rip),%rdi        # 6044e8 <global_offset>
  401f7e:	e8 1b ff ff ff       	callq  401e9e <launch>
  401f83:	48 8b 05 56 25 20 00 	mov    0x202556(%rip),%rax        # 6044e0 <global_save_stack>
  401f8a:	48 89 c4             	mov    %rax,%rsp
  401f8d:	be 00 00 10 00       	mov    $0x100000,%esi
  401f92:	48 89 df             	mov    %rbx,%rdi
  401f95:	e8 36 ee ff ff       	callq  400dd0 <munmap@plt>
  401f9a:	5b                   	pop    %rbx
  401f9b:	c3                   	retq   
  401f9c:	be 00 00 10 00       	mov    $0x100000,%esi
  401fa1:	48 89 c7             	mov    %rax,%rdi
  401fa4:	e8 27 ee ff ff       	callq  400dd0 <munmap@plt>
  401fa9:	ba 00 60 58 55       	mov    $0x55586000,%edx
  401fae:	be e8 33 40 00       	mov    $0x4033e8,%esi
  401fb3:	48 8b 3d 06 25 20 00 	mov    0x202506(%rip),%rdi        # 6044c0 <stderr@@GLIBC_2.2.5>
  401fba:	b8 00 00 00 00       	mov    $0x0,%eax
  401fbf:	e8 ac ed ff ff       	callq  400d70 <fprintf@plt>
  401fc4:	bf 01 00 00 00       	mov    $0x1,%edi
  401fc9:	e8 72 ee ff ff       	callq  400e40 <exit@plt>

0000000000401fce <rio_readinitb>:
  401fce:	89 37                	mov    %esi,(%rdi)
  401fd0:	c7 47 04 00 00 00 00 	movl   $0x0,0x4(%rdi)
  401fd7:	48 8d 47 10          	lea    0x10(%rdi),%rax
  401fdb:	48 89 47 08          	mov    %rax,0x8(%rdi)
  401fdf:	c3                   	retq   

0000000000401fe0 <sigalrm_handler>:
  401fe0:	48 83 ec 08          	sub    $0x8,%rsp
  401fe4:	ba 00 00 00 00       	mov    $0x0,%edx
  401fe9:	be 20 34 40 00       	mov    $0x403420,%esi
  401fee:	48 8b 3d cb 24 20 00 	mov    0x2024cb(%rip),%rdi        # 6044c0 <stderr@@GLIBC_2.2.5>
  401ff5:	b8 00 00 00 00       	mov    $0x0,%eax
  401ffa:	e8 71 ed ff ff       	callq  400d70 <fprintf@plt>
  401fff:	bf 01 00 00 00       	mov    $0x1,%edi
  402004:	e8 37 ee ff ff       	callq  400e40 <exit@plt>

0000000000402009 <urlencode>:
  402009:	41 54                	push   %r12
  40200b:	55                   	push   %rbp
  40200c:	53                   	push   %rbx
  40200d:	48 83 ec 10          	sub    $0x10,%rsp
  402011:	48 89 fb             	mov    %rdi,%rbx
  402014:	48 89 f5             	mov    %rsi,%rbp
  402017:	48 c7 c1 ff ff ff ff 	mov    $0xffffffffffffffff,%rcx
  40201e:	b8 00 00 00 00       	mov    $0x0,%eax
  402023:	f2 ae                	repnz scas %es:(%rdi),%al
  402025:	48 89 ce             	mov    %rcx,%rsi
  402028:	48 f7 d6             	not    %rsi
  40202b:	8d 46 ff             	lea    -0x1(%rsi),%eax
  40202e:	eb 0e                	jmp    40203e <urlencode+0x35>
  402030:	88 55 00             	mov    %dl,0x0(%rbp)
  402033:	48 8d 6d 01          	lea    0x1(%rbp),%rbp
  402037:	48 83 c3 01          	add    $0x1,%rbx
  40203b:	44 89 e0             	mov    %r12d,%eax
  40203e:	44 8d 60 ff          	lea    -0x1(%rax),%r12d
  402042:	85 c0                	test   %eax,%eax
  402044:	0f 84 93 00 00 00    	je     4020dd <urlencode+0xd4>
  40204a:	0f b6 13             	movzbl (%rbx),%edx
  40204d:	80 fa 2a             	cmp    $0x2a,%dl
  402050:	0f 94 c1             	sete   %cl
  402053:	80 fa 2d             	cmp    $0x2d,%dl
  402056:	0f 94 c0             	sete   %al
  402059:	08 c1                	or     %al,%cl
  40205b:	75 d3                	jne    402030 <urlencode+0x27>
  40205d:	80 fa 2e             	cmp    $0x2e,%dl
  402060:	74 ce                	je     402030 <urlencode+0x27>
  402062:	80 fa 5f             	cmp    $0x5f,%dl
  402065:	74 c9                	je     402030 <urlencode+0x27>
  402067:	8d 42 d0             	lea    -0x30(%rdx),%eax
  40206a:	3c 09                	cmp    $0x9,%al
  40206c:	76 c2                	jbe    402030 <urlencode+0x27>
  40206e:	8d 42 bf             	lea    -0x41(%rdx),%eax
  402071:	3c 19                	cmp    $0x19,%al
  402073:	76 bb                	jbe    402030 <urlencode+0x27>
  402075:	8d 42 9f             	lea    -0x61(%rdx),%eax
  402078:	3c 19                	cmp    $0x19,%al
  40207a:	76 b4                	jbe    402030 <urlencode+0x27>
  40207c:	80 fa 20             	cmp    $0x20,%dl
  40207f:	74 4a                	je     4020cb <urlencode+0xc2>
  402081:	8d 42 e0             	lea    -0x20(%rdx),%eax
  402084:	3c 5f                	cmp    $0x5f,%al
  402086:	0f 96 c1             	setbe  %cl
  402089:	80 fa 09             	cmp    $0x9,%dl
  40208c:	0f 94 c0             	sete   %al
  40208f:	08 c1                	or     %al,%cl
  402091:	74 45                	je     4020d8 <urlencode+0xcf>
  402093:	0f b6 d2             	movzbl %dl,%edx
  402096:	be b8 34 40 00       	mov    $0x4034b8,%esi
  40209b:	48 8d 7c 24 08       	lea    0x8(%rsp),%rdi
  4020a0:	b8 00 00 00 00       	mov    $0x0,%eax
  4020a5:	e8 86 ed ff ff       	callq  400e30 <sprintf@plt>
  4020aa:	0f b6 44 24 08       	movzbl 0x8(%rsp),%eax
  4020af:	88 45 00             	mov    %al,0x0(%rbp)
  4020b2:	0f b6 44 24 09       	movzbl 0x9(%rsp),%eax
  4020b7:	88 45 01             	mov    %al,0x1(%rbp)
  4020ba:	0f b6 44 24 0a       	movzbl 0xa(%rsp),%eax
  4020bf:	88 45 02             	mov    %al,0x2(%rbp)
  4020c2:	48 8d 6d 03          	lea    0x3(%rbp),%rbp
  4020c6:	e9 6c ff ff ff       	jmpq   402037 <urlencode+0x2e>
  4020cb:	c6 45 00 2b          	movb   $0x2b,0x0(%rbp)
  4020cf:	48 8d 6d 01          	lea    0x1(%rbp),%rbp
  4020d3:	e9 5f ff ff ff       	jmpq   402037 <urlencode+0x2e>
  4020d8:	b8 ff ff ff ff       	mov    $0xffffffff,%eax
  4020dd:	48 83 c4 10          	add    $0x10,%rsp
  4020e1:	5b                   	pop    %rbx
  4020e2:	5d                   	pop    %rbp
  4020e3:	41 5c                	pop    %r12
  4020e5:	c3                   	retq   

00000000004020e6 <rio_writen>:
  4020e6:	41 55                	push   %r13
  4020e8:	41 54                	push   %r12
  4020ea:	55                   	push   %rbp
  4020eb:	53                   	push   %rbx
  4020ec:	48 83 ec 08          	sub    $0x8,%rsp
  4020f0:	41 89 fc             	mov    %edi,%r12d
  4020f3:	48 89 f5             	mov    %rsi,%rbp
  4020f6:	49 89 d5             	mov    %rdx,%r13
  4020f9:	48 89 d3             	mov    %rdx,%rbx
  4020fc:	eb 06                	jmp    402104 <rio_writen+0x1e>
  4020fe:	48 29 c3             	sub    %rax,%rbx
  402101:	48 01 c5             	add    %rax,%rbp
  402104:	48 85 db             	test   %rbx,%rbx
  402107:	74 24                	je     40212d <rio_writen+0x47>
  402109:	48 89 da             	mov    %rbx,%rdx
  40210c:	48 89 ee             	mov    %rbp,%rsi
  40210f:	44 89 e7             	mov    %r12d,%edi
  402112:	e8 c9 eb ff ff       	callq  400ce0 <write@plt>
  402117:	48 85 c0             	test   %rax,%rax
  40211a:	7f e2                	jg     4020fe <rio_writen+0x18>
  40211c:	e8 6f eb ff ff       	callq  400c90 <__errno_location@plt>
  402121:	83 38 04             	cmpl   $0x4,(%rax)
  402124:	75 15                	jne    40213b <rio_writen+0x55>
  402126:	b8 00 00 00 00       	mov    $0x0,%eax
  40212b:	eb d1                	jmp    4020fe <rio_writen+0x18>
  40212d:	4c 89 e8             	mov    %r13,%rax
  402130:	48 83 c4 08          	add    $0x8,%rsp
  402134:	5b                   	pop    %rbx
  402135:	5d                   	pop    %rbp
  402136:	41 5c                	pop    %r12
  402138:	41 5d                	pop    %r13
  40213a:	c3                   	retq   
  40213b:	48 c7 c0 ff ff ff ff 	mov    $0xffffffffffffffff,%rax
  402142:	eb ec                	jmp    402130 <rio_writen+0x4a>

0000000000402144 <rio_read>:
  402144:	41 55                	push   %r13
  402146:	41 54                	push   %r12
  402148:	55                   	push   %rbp
  402149:	53                   	push   %rbx
  40214a:	48 83 ec 08          	sub    $0x8,%rsp
  40214e:	48 89 fb             	mov    %rdi,%rbx
  402151:	49 89 f5             	mov    %rsi,%r13
  402154:	49 89 d4             	mov    %rdx,%r12
  402157:	eb 0a                	jmp    402163 <rio_read+0x1f>
  402159:	e8 32 eb ff ff       	callq  400c90 <__errno_location@plt>
  40215e:	83 38 04             	cmpl   $0x4,(%rax)
  402161:	75 5a                	jne    4021bd <rio_read+0x79>
  402163:	8b 6b 04             	mov    0x4(%rbx),%ebp
  402166:	85 ed                	test   %ebp,%ebp
  402168:	7f 22                	jg     40218c <rio_read+0x48>
  40216a:	48 8d 6b 10          	lea    0x10(%rbx),%rbp
  40216e:	ba 00 20 00 00       	mov    $0x2000,%edx
  402173:	48 89 ee             	mov    %rbp,%rsi
  402176:	8b 3b                	mov    (%rbx),%edi
  402178:	e8 c3 eb ff ff       	callq  400d40 <read@plt>
  40217d:	89 43 04             	mov    %eax,0x4(%rbx)
  402180:	85 c0                	test   %eax,%eax
  402182:	78 d5                	js     402159 <rio_read+0x15>
  402184:	74 40                	je     4021c6 <rio_read+0x82>
  402186:	48 89 6b 08          	mov    %rbp,0x8(%rbx)
  40218a:	eb d7                	jmp    402163 <rio_read+0x1f>
  40218c:	89 e8                	mov    %ebp,%eax
  40218e:	4c 39 e0             	cmp    %r12,%rax
  402191:	72 03                	jb     402196 <rio_read+0x52>
  402193:	44 89 e5             	mov    %r12d,%ebp
  402196:	4c 63 e5             	movslq %ebp,%r12
  402199:	48 8b 73 08          	mov    0x8(%rbx),%rsi
  40219d:	4c 89 e2             	mov    %r12,%rdx
  4021a0:	4c 89 ef             	mov    %r13,%rdi
  4021a3:	e8 e8 eb ff ff       	callq  400d90 <memcpy@plt>
  4021a8:	4c 01 63 08          	add    %r12,0x8(%rbx)
  4021ac:	29 6b 04             	sub    %ebp,0x4(%rbx)
  4021af:	4c 89 e0             	mov    %r12,%rax
  4021b2:	48 83 c4 08          	add    $0x8,%rsp
  4021b6:	5b                   	pop    %rbx
  4021b7:	5d                   	pop    %rbp
  4021b8:	41 5c                	pop    %r12
  4021ba:	41 5d                	pop    %r13
  4021bc:	c3                   	retq   
  4021bd:	48 c7 c0 ff ff ff ff 	mov    $0xffffffffffffffff,%rax
  4021c4:	eb ec                	jmp    4021b2 <rio_read+0x6e>
  4021c6:	b8 00 00 00 00       	mov    $0x0,%eax
  4021cb:	eb e5                	jmp    4021b2 <rio_read+0x6e>

00000000004021cd <rio_readlineb>:
  4021cd:	41 55                	push   %r13
  4021cf:	41 54                	push   %r12
  4021d1:	55                   	push   %rbp
  4021d2:	53                   	push   %rbx
  4021d3:	48 83 ec 18          	sub    $0x18,%rsp
  4021d7:	49 89 fd             	mov    %rdi,%r13
  4021da:	48 89 f5             	mov    %rsi,%rbp
  4021dd:	49 89 d4             	mov    %rdx,%r12
  4021e0:	bb 01 00 00 00       	mov    $0x1,%ebx
  4021e5:	4c 39 e3             	cmp    %r12,%rbx
  4021e8:	73 44                	jae    40222e <rio_readlineb+0x61>
  4021ea:	ba 01 00 00 00       	mov    $0x1,%edx
  4021ef:	48 8d 74 24 0f       	lea    0xf(%rsp),%rsi
  4021f4:	4c 89 ef             	mov    %r13,%rdi
  4021f7:	e8 48 ff ff ff       	callq  402144 <rio_read>
  4021fc:	83 f8 01             	cmp    $0x1,%eax
  4021ff:	75 19                	jne    40221a <rio_readlineb+0x4d>
  402201:	48 8d 55 01          	lea    0x1(%rbp),%rdx
  402205:	0f b6 44 24 0f       	movzbl 0xf(%rsp),%eax
  40220a:	88 45 00             	mov    %al,0x0(%rbp)
  40220d:	3c 0a                	cmp    $0xa,%al
  40220f:	74 1a                	je     40222b <rio_readlineb+0x5e>
  402211:	48 83 c3 01          	add    $0x1,%rbx
  402215:	48 89 d5             	mov    %rdx,%rbp
  402218:	eb cb                	jmp    4021e5 <rio_readlineb+0x18>
  40221a:	85 c0                	test   %eax,%eax
  40221c:	75 22                	jne    402240 <rio_readlineb+0x73>
  40221e:	48 83 fb 01          	cmp    $0x1,%rbx
  402222:	75 0a                	jne    40222e <rio_readlineb+0x61>
  402224:	b8 00 00 00 00       	mov    $0x0,%eax
  402229:	eb 0a                	jmp    402235 <rio_readlineb+0x68>
  40222b:	48 89 d5             	mov    %rdx,%rbp
  40222e:	c6 45 00 00          	movb   $0x0,0x0(%rbp)
  402232:	48 89 d8             	mov    %rbx,%rax
  402235:	48 83 c4 18          	add    $0x18,%rsp
  402239:	5b                   	pop    %rbx
  40223a:	5d                   	pop    %rbp
  40223b:	41 5c                	pop    %r12
  40223d:	41 5d                	pop    %r13
  40223f:	c3                   	retq   
  402240:	48 c7 c0 ff ff ff ff 	mov    $0xffffffffffffffff,%rax
  402247:	eb ec                	jmp    402235 <rio_readlineb+0x68>

0000000000402249 <submitr>:
  402249:	41 57                	push   %r15
  40224b:	41 56                	push   %r14
  40224d:	41 55                	push   %r13
  40224f:	41 54                	push   %r12
  402251:	55                   	push   %rbp
  402252:	53                   	push   %rbx
  402253:	48 81 ec 48 a0 00 00 	sub    $0xa048,%rsp
  40225a:	49 89 fc             	mov    %rdi,%r12
  40225d:	89 74 24 04          	mov    %esi,0x4(%rsp)
  402261:	49 89 d7             	mov    %rdx,%r15
  402264:	49 89 ce             	mov    %rcx,%r14
  402267:	4c 89 44 24 08       	mov    %r8,0x8(%rsp)
  40226c:	4d 89 cd             	mov    %r9,%r13
  40226f:	48 8b ac 24 80 a0 00 	mov    0xa080(%rsp),%rbp
  402276:	00 
  402277:	c7 84 24 1c 20 00 00 	movl   $0x0,0x201c(%rsp)
  40227e:	00 00 00 00 
  402282:	ba 00 00 00 00       	mov    $0x0,%edx
  402287:	be 01 00 00 00       	mov    $0x1,%esi
  40228c:	bf 02 00 00 00       	mov    $0x2,%edi
  402291:	e8 da eb ff ff       	callq  400e70 <socket@plt>
  402296:	85 c0                	test   %eax,%eax
  402298:	0f 88 8f 02 00 00    	js     40252d <submitr+0x2e4>
  40229e:	89 c3                	mov    %eax,%ebx
  4022a0:	4c 89 e7             	mov    %r12,%rdi
  4022a3:	e8 b8 ea ff ff       	callq  400d60 <gethostbyname@plt>
  4022a8:	48 85 c0             	test   %rax,%rax
  4022ab:	0f 84 c8 02 00 00    	je     402579 <submitr+0x330>
  4022b1:	48 c7 84 24 32 a0 00 	movq   $0x0,0xa032(%rsp)
  4022b8:	00 00 00 00 00 
  4022bd:	c7 84 24 3a a0 00 00 	movl   $0x0,0xa03a(%rsp)
  4022c4:	00 00 00 00 
  4022c8:	66 c7 84 24 3e a0 00 	movw   $0x0,0xa03e(%rsp)
  4022cf:	00 00 00 
  4022d2:	66 c7 84 24 30 a0 00 	movw   $0x2,0xa030(%rsp)
  4022d9:	00 02 00 
  4022dc:	48 8b 48 18          	mov    0x18(%rax),%rcx
  4022e0:	48 63 50 14          	movslq 0x14(%rax),%rdx
  4022e4:	48 8d bc 24 34 a0 00 	lea    0xa034(%rsp),%rdi
  4022eb:	00 
  4022ec:	48 8b 31             	mov    (%rcx),%rsi
  4022ef:	e8 ec ea ff ff       	callq  400de0 <memmove@plt>
  4022f4:	0f b7 44 24 04       	movzwl 0x4(%rsp),%eax
  4022f9:	66 c1 c0 08          	rol    $0x8,%ax
  4022fd:	66 89 84 24 32 a0 00 	mov    %ax,0xa032(%rsp)
  402304:	00 
  402305:	ba 10 00 00 00       	mov    $0x10,%edx
  40230a:	48 8d b4 24 30 a0 00 	lea    0xa030(%rsp),%rsi
  402311:	00 
  402312:	89 df                	mov    %ebx,%edi
  402314:	e8 37 eb ff ff       	callq  400e50 <connect@plt>
  402319:	85 c0                	test   %eax,%eax
  40231b:	0f 88 c0 02 00 00    	js     4025e1 <submitr+0x398>
  402321:	48 c7 c6 ff ff ff ff 	mov    $0xffffffffffffffff,%rsi
  402328:	b8 00 00 00 00       	mov    $0x0,%eax
  40232d:	48 89 f1             	mov    %rsi,%rcx
  402330:	4c 89 ef             	mov    %r13,%rdi
  402333:	f2 ae                	repnz scas %es:(%rdi),%al
  402335:	48 89 ca             	mov    %rcx,%rdx
  402338:	48 f7 d2             	not    %rdx
  40233b:	48 89 f1             	mov    %rsi,%rcx
  40233e:	4c 89 ff             	mov    %r15,%rdi
  402341:	f2 ae                	repnz scas %es:(%rdi),%al
  402343:	48 f7 d1             	not    %rcx
  402346:	49 89 c8             	mov    %rcx,%r8
  402349:	48 89 f1             	mov    %rsi,%rcx
  40234c:	4c 89 f7             	mov    %r14,%rdi
  40234f:	f2 ae                	repnz scas %es:(%rdi),%al
  402351:	48 f7 d1             	not    %rcx
  402354:	4d 8d 44 08 fe       	lea    -0x2(%r8,%rcx,1),%r8
  402359:	48 89 f1             	mov    %rsi,%rcx
  40235c:	48 8b 7c 24 08       	mov    0x8(%rsp),%rdi
  402361:	f2 ae                	repnz scas %es:(%rdi),%al
  402363:	48 89 c8             	mov    %rcx,%rax
  402366:	48 f7 d0             	not    %rax
  402369:	49 8d 4c 00 ff       	lea    -0x1(%r8,%rax,1),%rcx
  40236e:	48 8d 44 52 fd       	lea    -0x3(%rdx,%rdx,2),%rax
  402373:	48 8d 84 01 80 00 00 	lea    0x80(%rcx,%rax,1),%rax
  40237a:	00 
  40237b:	48 3d 00 20 00 00    	cmp    $0x2000,%rax
  402381:	0f 87 b4 02 00 00    	ja     40263b <submitr+0x3f2>
  402387:	48 8d b4 24 20 40 00 	lea    0x4020(%rsp),%rsi
  40238e:	00 
  40238f:	b9 00 04 00 00       	mov    $0x400,%ecx
  402394:	b8 00 00 00 00       	mov    $0x0,%eax
  402399:	48 89 f7             	mov    %rsi,%rdi
  40239c:	f3 48 ab             	rep stos %rax,%es:(%rdi)
  40239f:	4c 89 ef             	mov    %r13,%rdi
  4023a2:	e8 62 fc ff ff       	callq  402009 <urlencode>
  4023a7:	85 c0                	test   %eax,%eax
  4023a9:	0f 88 ff 02 00 00    	js     4026ae <submitr+0x465>
  4023af:	4c 8d ac 24 20 60 00 	lea    0x6020(%rsp),%r13
  4023b6:	00 
  4023b7:	4d 89 e1             	mov    %r12,%r9
  4023ba:	4c 8d 84 24 20 40 00 	lea    0x4020(%rsp),%r8
  4023c1:	00 
  4023c2:	4c 89 f9             	mov    %r15,%rcx
  4023c5:	4c 89 f2             	mov    %r14,%rdx
  4023c8:	be 48 34 40 00       	mov    $0x403448,%esi
  4023cd:	4c 89 ef             	mov    %r13,%rdi
  4023d0:	b8 00 00 00 00       	mov    $0x0,%eax
  4023d5:	e8 56 ea ff ff       	callq  400e30 <sprintf@plt>
  4023da:	48 c7 c1 ff ff ff ff 	mov    $0xffffffffffffffff,%rcx
  4023e1:	b8 00 00 00 00       	mov    $0x0,%eax
  4023e6:	4c 89 ef             	mov    %r13,%rdi
  4023e9:	f2 ae                	repnz scas %es:(%rdi),%al
  4023eb:	48 89 ca             	mov    %rcx,%rdx
  4023ee:	48 f7 d2             	not    %rdx
  4023f1:	48 8d 52 ff          	lea    -0x1(%rdx),%rdx
  4023f5:	4c 89 ee             	mov    %r13,%rsi
  4023f8:	89 df                	mov    %ebx,%edi
  4023fa:	e8 e7 fc ff ff       	callq  4020e6 <rio_writen>
  4023ff:	48 85 c0             	test   %rax,%rax
  402402:	0f 88 31 03 00 00    	js     402739 <submitr+0x4f0>
  402408:	89 de                	mov    %ebx,%esi
  40240a:	48 8d bc 24 20 80 00 	lea    0x8020(%rsp),%rdi
  402411:	00 
  402412:	e8 b7 fb ff ff       	callq  401fce <rio_readinitb>
  402417:	ba 00 20 00 00       	mov    $0x2000,%edx
  40241c:	48 8d b4 24 20 60 00 	lea    0x6020(%rsp),%rsi
  402423:	00 
  402424:	48 8d bc 24 20 80 00 	lea    0x8020(%rsp),%rdi
  40242b:	00 
  40242c:	e8 9c fd ff ff       	callq  4021cd <rio_readlineb>
  402431:	48 85 c0             	test   %rax,%rax
  402434:	0f 8e 6e 03 00 00    	jle    4027a8 <submitr+0x55f>
  40243a:	4c 8d 44 24 10       	lea    0x10(%rsp),%r8
  40243f:	48 8d 8c 24 1c 20 00 	lea    0x201c(%rsp),%rcx
  402446:	00 
  402447:	48 8d 94 24 20 20 00 	lea    0x2020(%rsp),%rdx
  40244e:	00 
  40244f:	be bf 34 40 00       	mov    $0x4034bf,%esi
  402454:	48 8d bc 24 20 60 00 	lea    0x6020(%rsp),%rdi
  40245b:	00 
  40245c:	b8 00 00 00 00       	mov    $0x0,%eax
  402461:	e8 5a e9 ff ff       	callq  400dc0 <__isoc99_sscanf@plt>
  402466:	48 8d b4 24 20 60 00 	lea    0x6020(%rsp),%rsi
  40246d:	00 
  40246e:	bf d6 34 40 00       	mov    $0x4034d6,%edi
  402473:	b9 03 00 00 00       	mov    $0x3,%ecx
  402478:	f3 a6                	repz cmpsb %es:(%rdi),%ds:(%rsi)
  40247a:	0f 97 c0             	seta   %al
  40247d:	1c 00                	sbb    $0x0,%al
  40247f:	84 c0                	test   %al,%al
  402481:	0f 84 9f 03 00 00    	je     402826 <submitr+0x5dd>
  402487:	ba 00 20 00 00       	mov    $0x2000,%edx
  40248c:	48 8d b4 24 20 60 00 	lea    0x6020(%rsp),%rsi
  402493:	00 
  402494:	48 8d bc 24 20 80 00 	lea    0x8020(%rsp),%rdi
  40249b:	00 
  40249c:	e8 2c fd ff ff       	callq  4021cd <rio_readlineb>
  4024a1:	48 85 c0             	test   %rax,%rax
  4024a4:	7f c0                	jg     402466 <submitr+0x21d>
  4024a6:	48 b8 45 72 72 6f 72 	movabs $0x43203a726f727245,%rax
  4024ad:	3a 20 43 
  4024b0:	48 ba 6c 69 65 6e 74 	movabs $0x6e7520746e65696c,%rdx
  4024b7:	20 75 6e 
  4024ba:	48 89 45 00          	mov    %rax,0x0(%rbp)
  4024be:	48 89 55 08          	mov    %rdx,0x8(%rbp)
  4024c2:	48 b8 61 62 6c 65 20 	movabs $0x206f7420656c6261,%rax
  4024c9:	74 6f 20 
  4024cc:	48 ba 72 65 61 64 20 	movabs $0x6165682064616572,%rdx
  4024d3:	68 65 61 
  4024d6:	48 89 45 10          	mov    %rax,0x10(%rbp)
  4024da:	48 89 55 18          	mov    %rdx,0x18(%rbp)
  4024de:	48 b8 64 65 72 73 20 	movabs $0x6f72662073726564,%rax
  4024e5:	66 72 6f 
  4024e8:	48 ba 6d 20 74 68 65 	movabs $0x657220656874206d,%rdx
  4024ef:	20 72 65 
  4024f2:	48 89 45 20          	mov    %rax,0x20(%rbp)
  4024f6:	48 89 55 28          	mov    %rdx,0x28(%rbp)
  4024fa:	48 b8 73 75 6c 74 20 	movabs $0x72657320746c7573,%rax
  402501:	73 65 72 
  402504:	48 89 45 30          	mov    %rax,0x30(%rbp)
  402508:	c7 45 38 76 65 72 00 	movl   $0x726576,0x38(%rbp)
  40250f:	89 df                	mov    %ebx,%edi
  402511:	e8 1a e8 ff ff       	callq  400d30 <close@plt>
  402516:	b8 ff ff ff ff       	mov    $0xffffffff,%eax
  40251b:	48 81 c4 48 a0 00 00 	add    $0xa048,%rsp
  402522:	5b                   	pop    %rbx
  402523:	5d                   	pop    %rbp
  402524:	41 5c                	pop    %r12
  402526:	41 5d                	pop    %r13
  402528:	41 5e                	pop    %r14
  40252a:	41 5f                	pop    %r15
  40252c:	c3                   	retq   
  40252d:	48 b8 45 72 72 6f 72 	movabs $0x43203a726f727245,%rax
  402534:	3a 20 43 
  402537:	48 ba 6c 69 65 6e 74 	movabs $0x6e7520746e65696c,%rdx
  40253e:	20 75 6e 
  402541:	48 89 45 00          	mov    %rax,0x0(%rbp)
  402545:	48 89 55 08          	mov    %rdx,0x8(%rbp)
  402549:	48 b8 61 62 6c 65 20 	movabs $0x206f7420656c6261,%rax
  402550:	74 6f 20 
  402553:	48 ba 63 72 65 61 74 	movabs $0x7320657461657263,%rdx
  40255a:	65 20 73 
  40255d:	48 89 45 10          	mov    %rax,0x10(%rbp)
  402561:	48 89 55 18          	mov    %rdx,0x18(%rbp)
  402565:	c7 45 20 6f 63 6b 65 	movl   $0x656b636f,0x20(%rbp)
  40256c:	66 c7 45 24 74 00    	movw   $0x74,0x24(%rbp)
  402572:	b8 ff ff ff ff       	mov    $0xffffffff,%eax
  402577:	eb a2                	jmp    40251b <submitr+0x2d2>
  402579:	48 b8 45 72 72 6f 72 	movabs $0x44203a726f727245,%rax
  402580:	3a 20 44 
  402583:	48 ba 4e 53 20 69 73 	movabs $0x6e7520736920534e,%rdx
  40258a:	20 75 6e 
  40258d:	48 89 45 00          	mov    %rax,0x0(%rbp)
  402591:	48 89 55 08          	mov    %rdx,0x8(%rbp)
  402595:	48 b8 61 62 6c 65 20 	movabs $0x206f7420656c6261,%rax
  40259c:	74 6f 20 
  40259f:	48 ba 72 65 73 6f 6c 	movabs $0x2065766c6f736572,%rdx
  4025a6:	76 65 20 
  4025a9:	48 89 45 10          	mov    %rax,0x10(%rbp)
  4025ad:	48 89 55 18          	mov    %rdx,0x18(%rbp)
  4025b1:	48 b8 73 65 72 76 65 	movabs $0x6120726576726573,%rax
  4025b8:	72 20 61 
  4025bb:	48 89 45 20          	mov    %rax,0x20(%rbp)
  4025bf:	c7 45 28 64 64 72 65 	movl   $0x65726464,0x28(%rbp)
  4025c6:	66 c7 45 2c 73 73    	movw   $0x7373,0x2c(%rbp)
  4025cc:	c6 45 2e 00          	movb   $0x0,0x2e(%rbp)
  4025d0:	89 df                	mov    %ebx,%edi
  4025d2:	e8 59 e7 ff ff       	callq  400d30 <close@plt>
  4025d7:	b8 ff ff ff ff       	mov    $0xffffffff,%eax
  4025dc:	e9 3a ff ff ff       	jmpq   40251b <submitr+0x2d2>
  4025e1:	48 b8 45 72 72 6f 72 	movabs $0x55203a726f727245,%rax
  4025e8:	3a 20 55 
  4025eb:	48 ba 6e 61 62 6c 65 	movabs $0x6f7420656c62616e,%rdx
  4025f2:	20 74 6f 
  4025f5:	48 89 45 00          	mov    %rax,0x0(%rbp)
  4025f9:	48 89 55 08          	mov    %rdx,0x8(%rbp)
  4025fd:	48 b8 20 63 6f 6e 6e 	movabs $0x7463656e6e6f6320,%rax
  402604:	65 63 74 
  402607:	48 ba 20 74 6f 20 74 	movabs $0x20656874206f7420,%rdx
  40260e:	68 65 20 
  402611:	48 89 45 10          	mov    %rax,0x10(%rbp)
  402615:	48 89 55 18          	mov    %rdx,0x18(%rbp)
  402619:	c7 45 20 73 65 72 76 	movl   $0x76726573,0x20(%rbp)
  402620:	66 c7 45 24 65 72    	movw   $0x7265,0x24(%rbp)
  402626:	c6 45 26 00          	movb   $0x0,0x26(%rbp)
  40262a:	89 df                	mov    %ebx,%edi
  40262c:	e8 ff e6 ff ff       	callq  400d30 <close@plt>
  402631:	b8 ff ff ff ff       	mov    $0xffffffff,%eax
  402636:	e9 e0 fe ff ff       	jmpq   40251b <submitr+0x2d2>
  40263b:	48 b8 45 72 72 6f 72 	movabs $0x52203a726f727245,%rax
  402642:	3a 20 52 
  402645:	48 ba 65 73 75 6c 74 	movabs $0x747320746c757365,%rdx
  40264c:	20 73 74 
  40264f:	48 89 45 00          	mov    %rax,0x0(%rbp)
  402653:	48 89 55 08          	mov    %rdx,0x8(%rbp)
  402657:	48 b8 72 69 6e 67 20 	movabs $0x6f6f7420676e6972,%rax
  40265e:	74 6f 6f 
  402661:	48 ba 20 6c 61 72 67 	movabs $0x202e656772616c20,%rdx
  402668:	65 2e 20 
  40266b:	48 89 45 10          	mov    %rax,0x10(%rbp)
  40266f:	48 89 55 18          	mov    %rdx,0x18(%rbp)
  402673:	48 b8 49 6e 63 72 65 	movabs $0x6573616572636e49,%rax
  40267a:	61 73 65 
  40267d:	48 ba 20 53 55 42 4d 	movabs $0x5254494d42555320,%rdx
  402684:	49 54 52 
  402687:	48 89 45 20          	mov    %rax,0x20(%rbp)
  40268b:	48 89 55 28          	mov    %rdx,0x28(%rbp)
  40268f:	48 b8 5f 4d 41 58 42 	movabs $0x46554258414d5f,%rax
  402696:	55 46 00 
  402699:	48 89 45 30          	mov    %rax,0x30(%rbp)
  40269d:	89 df                	mov    %ebx,%edi
  40269f:	e8 8c e6 ff ff       	callq  400d30 <close@plt>
  4026a4:	b8 ff ff ff ff       	mov    $0xffffffff,%eax
  4026a9:	e9 6d fe ff ff       	jmpq   40251b <submitr+0x2d2>
  4026ae:	48 b8 45 72 72 6f 72 	movabs $0x52203a726f727245,%rax
  4026b5:	3a 20 52 
  4026b8:	48 ba 65 73 75 6c 74 	movabs $0x747320746c757365,%rdx
  4026bf:	20 73 74 
  4026c2:	48 89 45 00          	mov    %rax,0x0(%rbp)
  4026c6:	48 89 55 08          	mov    %rdx,0x8(%rbp)
  4026ca:	48 b8 72 69 6e 67 20 	movabs $0x6e6f6320676e6972,%rax
  4026d1:	63 6f 6e 
  4026d4:	48 ba 74 61 69 6e 73 	movabs $0x6e6120736e696174,%rdx
  4026db:	20 61 6e 
  4026de:	48 89 45 10          	mov    %rax,0x10(%rbp)
  4026e2:	48 89 55 18          	mov    %rdx,0x18(%rbp)
  4026e6:	48 b8 20 69 6c 6c 65 	movabs $0x6c6167656c6c6920,%rax
  4026ed:	67 61 6c 
  4026f0:	48 ba 20 6f 72 20 75 	movabs $0x72706e7520726f20,%rdx
  4026f7:	6e 70 72 
  4026fa:	48 89 45 20          	mov    %rax,0x20(%rbp)
  4026fe:	48 89 55 28          	mov    %rdx,0x28(%rbp)
  402702:	48 b8 69 6e 74 61 62 	movabs $0x20656c6261746e69,%rax
  402709:	6c 65 20 
  40270c:	48 ba 63 68 61 72 61 	movabs $0x6574636172616863,%rdx
  402713:	63 74 65 
  402716:	48 89 45 30          	mov    %rax,0x30(%rbp)
  40271a:	48 89 55 38          	mov    %rdx,0x38(%rbp)
  40271e:	66 c7 45 40 72 2e    	movw   $0x2e72,0x40(%rbp)
  402724:	c6 45 42 00          	movb   $0x0,0x42(%rbp)
  402728:	89 df                	mov    %ebx,%edi
  40272a:	e8 01 e6 ff ff       	callq  400d30 <close@plt>
  40272f:	b8 ff ff ff ff       	mov    $0xffffffff,%eax
  402734:	e9 e2 fd ff ff       	jmpq   40251b <submitr+0x2d2>
  402739:	48 b8 45 72 72 6f 72 	movabs $0x43203a726f727245,%rax
  402740:	3a 20 43 
  402743:	48 ba 6c 69 65 6e 74 	movabs $0x6e7520746e65696c,%rdx
  40274a:	20 75 6e 
  40274d:	48 89 45 00          	mov    %rax,0x0(%rbp)
  402751:	48 89 55 08          	mov    %rdx,0x8(%rbp)
  402755:	48 b8 61 62 6c 65 20 	movabs $0x206f7420656c6261,%rax
  40275c:	74 6f 20 
  40275f:	48 ba 77 72 69 74 65 	movabs $0x6f74206574697277,%rdx
  402766:	20 74 6f 
  402769:	48 89 45 10          	mov    %rax,0x10(%rbp)
  40276d:	48 89 55 18          	mov    %rdx,0x18(%rbp)
  402771:	48 b8 20 74 68 65 20 	movabs $0x7365722065687420,%rax
  402778:	72 65 73 
  40277b:	48 ba 75 6c 74 20 73 	movabs $0x7672657320746c75,%rdx
  402782:	65 72 76 
  402785:	48 89 45 20          	mov    %rax,0x20(%rbp)
  402789:	48 89 55 28          	mov    %rdx,0x28(%rbp)
  40278d:	66 c7 45 30 65 72    	movw   $0x7265,0x30(%rbp)
  402793:	c6 45 32 00          	movb   $0x0,0x32(%rbp)
  402797:	89 df                	mov    %ebx,%edi
  402799:	e8 92 e5 ff ff       	callq  400d30 <close@plt>
  40279e:	b8 ff ff ff ff       	mov    $0xffffffff,%eax
  4027a3:	e9 73 fd ff ff       	jmpq   40251b <submitr+0x2d2>
  4027a8:	48 b8 45 72 72 6f 72 	movabs $0x43203a726f727245,%rax
  4027af:	3a 20 43 
  4027b2:	48 ba 6c 69 65 6e 74 	movabs $0x6e7520746e65696c,%rdx
  4027b9:	20 75 6e 
  4027bc:	48 89 45 00          	mov    %rax,0x0(%rbp)
  4027c0:	48 89 55 08          	mov    %rdx,0x8(%rbp)
  4027c4:	48 b8 61 62 6c 65 20 	movabs $0x206f7420656c6261,%rax
  4027cb:	74 6f 20 
  4027ce:	48 ba 72 65 61 64 20 	movabs $0x7269662064616572,%rdx
  4027d5:	66 69 72 
  4027d8:	48 89 45 10          	mov    %rax,0x10(%rbp)
  4027dc:	48 89 55 18          	mov    %rdx,0x18(%rbp)
  4027e0:	48 b8 73 74 20 68 65 	movabs $0x6564616568207473,%rax
  4027e7:	61 64 65 
  4027ea:	48 ba 72 20 66 72 6f 	movabs $0x72206d6f72662072,%rdx
  4027f1:	6d 20 72 
  4027f4:	48 89 45 20          	mov    %rax,0x20(%rbp)
  4027f8:	48 89 55 28          	mov    %rdx,0x28(%rbp)
  4027fc:	48 b8 65 73 75 6c 74 	movabs $0x657320746c757365,%rax
  402803:	20 73 65 
  402806:	48 89 45 30          	mov    %rax,0x30(%rbp)
  40280a:	c7 45 38 72 76 65 72 	movl   $0x72657672,0x38(%rbp)
  402811:	c6 45 3c 00          	movb   $0x0,0x3c(%rbp)
  402815:	89 df                	mov    %ebx,%edi
  402817:	e8 14 e5 ff ff       	callq  400d30 <close@plt>
  40281c:	b8 ff ff ff ff       	mov    $0xffffffff,%eax
  402821:	e9 f5 fc ff ff       	jmpq   40251b <submitr+0x2d2>
  402826:	ba 00 20 00 00       	mov    $0x2000,%edx
  40282b:	48 8d b4 24 20 60 00 	lea    0x6020(%rsp),%rsi
  402832:	00 
  402833:	48 8d bc 24 20 80 00 	lea    0x8020(%rsp),%rdi
  40283a:	00 
  40283b:	e8 8d f9 ff ff       	callq  4021cd <rio_readlineb>
  402840:	48 85 c0             	test   %rax,%rax
  402843:	0f 8e 91 00 00 00    	jle    4028da <submitr+0x691>
  402849:	8b 94 24 1c 20 00 00 	mov    0x201c(%rsp),%edx
  402850:	81 fa c8 00 00 00    	cmp    $0xc8,%edx
  402856:	0f 85 02 01 00 00    	jne    40295e <submitr+0x715>
  40285c:	48 8d b4 24 20 60 00 	lea    0x6020(%rsp),%rsi
  402863:	00 
  402864:	48 89 ef             	mov    %rbp,%rdi
  402867:	e8 54 e4 ff ff       	callq  400cc0 <strcpy@plt>
  40286c:	89 df                	mov    %ebx,%edi
  40286e:	e8 bd e4 ff ff       	callq  400d30 <close@plt>
  402873:	bf d0 34 40 00       	mov    $0x4034d0,%edi
  402878:	b9 04 00 00 00       	mov    $0x4,%ecx
  40287d:	48 89 ee             	mov    %rbp,%rsi
  402880:	f3 a6                	repz cmpsb %es:(%rdi),%ds:(%rsi)
  402882:	0f 97 c0             	seta   %al
  402885:	1c 00                	sbb    $0x0,%al
  402887:	0f be c0             	movsbl %al,%eax
  40288a:	85 c0                	test   %eax,%eax
  40288c:	0f 84 89 fc ff ff    	je     40251b <submitr+0x2d2>
  402892:	bf d4 34 40 00       	mov    $0x4034d4,%edi
  402897:	b9 05 00 00 00       	mov    $0x5,%ecx
  40289c:	48 89 ee             	mov    %rbp,%rsi
  40289f:	f3 a6                	repz cmpsb %es:(%rdi),%ds:(%rsi)
  4028a1:	0f 97 c0             	seta   %al
  4028a4:	1c 00                	sbb    $0x0,%al
  4028a6:	0f be c0             	movsbl %al,%eax
  4028a9:	85 c0                	test   %eax,%eax
  4028ab:	0f 84 6a fc ff ff    	je     40251b <submitr+0x2d2>
  4028b1:	bf d9 34 40 00       	mov    $0x4034d9,%edi
  4028b6:	b9 03 00 00 00       	mov    $0x3,%ecx
  4028bb:	48 89 ee             	mov    %rbp,%rsi
  4028be:	f3 a6                	repz cmpsb %es:(%rdi),%ds:(%rsi)
  4028c0:	0f 97 c0             	seta   %al
  4028c3:	1c 00                	sbb    $0x0,%al
  4028c5:	0f be c0             	movsbl %al,%eax
  4028c8:	85 c0                	test   %eax,%eax
  4028ca:	0f 84 4b fc ff ff    	je     40251b <submitr+0x2d2>
  4028d0:	b8 ff ff ff ff       	mov    $0xffffffff,%eax
  4028d5:	e9 41 fc ff ff       	jmpq   40251b <submitr+0x2d2>
  4028da:	48 b8 45 72 72 6f 72 	movabs $0x43203a726f727245,%rax
  4028e1:	3a 20 43 
  4028e4:	48 ba 6c 69 65 6e 74 	movabs $0x6e7520746e65696c,%rdx
  4028eb:	20 75 6e 
  4028ee:	48 89 45 00          	mov    %rax,0x0(%rbp)
  4028f2:	48 89 55 08          	mov    %rdx,0x8(%rbp)
  4028f6:	48 b8 61 62 6c 65 20 	movabs $0x206f7420656c6261,%rax
  4028fd:	74 6f 20 
  402900:	48 ba 72 65 61 64 20 	movabs $0x6174732064616572,%rdx
  402907:	73 74 61 
  40290a:	48 89 45 10          	mov    %rax,0x10(%rbp)
  40290e:	48 89 55 18          	mov    %rdx,0x18(%rbp)
  402912:	48 b8 74 75 73 20 6d 	movabs $0x7373656d20737574,%rax
  402919:	65 73 73 
  40291c:	48 ba 61 67 65 20 66 	movabs $0x6d6f726620656761,%rdx
  402923:	72 6f 6d 
  402926:	48 89 45 20          	mov    %rax,0x20(%rbp)
  40292a:	48 89 55 28          	mov    %rdx,0x28(%rbp)
  40292e:	48 b8 20 72 65 73 75 	movabs $0x20746c7573657220,%rax
  402935:	6c 74 20 
  402938:	48 89 45 30          	mov    %rax,0x30(%rbp)
  40293c:	c7 45 38 73 65 72 76 	movl   $0x76726573,0x38(%rbp)
  402943:	66 c7 45 3c 65 72    	movw   $0x7265,0x3c(%rbp)
  402949:	c6 45 3e 00          	movb   $0x0,0x3e(%rbp)
  40294d:	89 df                	mov    %ebx,%edi
  40294f:	e8 dc e3 ff ff       	callq  400d30 <close@plt>
  402954:	b8 ff ff ff ff       	mov    $0xffffffff,%eax
  402959:	e9 bd fb ff ff       	jmpq   40251b <submitr+0x2d2>
  40295e:	48 8d 4c 24 10       	lea    0x10(%rsp),%rcx
  402963:	be 88 34 40 00       	mov    $0x403488,%esi
  402968:	48 89 ef             	mov    %rbp,%rdi
  40296b:	b8 00 00 00 00       	mov    $0x0,%eax
  402970:	e8 bb e4 ff ff       	callq  400e30 <sprintf@plt>
  402975:	89 df                	mov    %ebx,%edi
  402977:	e8 b4 e3 ff ff       	callq  400d30 <close@plt>
  40297c:	b8 ff ff ff ff       	mov    $0xffffffff,%eax
  402981:	e9 95 fb ff ff       	jmpq   40251b <submitr+0x2d2>

0000000000402986 <init_timeout>:
  402986:	85 ff                	test   %edi,%edi
  402988:	74 24                	je     4029ae <init_timeout+0x28>
  40298a:	53                   	push   %rbx
  40298b:	89 fb                	mov    %edi,%ebx
  40298d:	78 18                	js     4029a7 <init_timeout+0x21>
  40298f:	be e0 1f 40 00       	mov    $0x401fe0,%esi
  402994:	bf 0e 00 00 00       	mov    $0xe,%edi
  402999:	e8 b2 e3 ff ff       	callq  400d50 <signal@plt>
  40299e:	89 df                	mov    %ebx,%edi
  4029a0:	e8 7b e3 ff ff       	callq  400d20 <alarm@plt>
  4029a5:	5b                   	pop    %rbx
  4029a6:	c3                   	retq   
  4029a7:	bb 00 00 00 00       	mov    $0x0,%ebx
  4029ac:	eb e1                	jmp    40298f <init_timeout+0x9>
  4029ae:	c3                   	retq   

00000000004029af <init_driver>:
  4029af:	55                   	push   %rbp
  4029b0:	53                   	push   %rbx
  4029b1:	48 83 ec 18          	sub    $0x18,%rsp
  4029b5:	48 89 fd             	mov    %rdi,%rbp
  4029b8:	be 01 00 00 00       	mov    $0x1,%esi
  4029bd:	bf 0d 00 00 00       	mov    $0xd,%edi
  4029c2:	e8 89 e3 ff ff       	callq  400d50 <signal@plt>
  4029c7:	be 01 00 00 00       	mov    $0x1,%esi
  4029cc:	bf 1d 00 00 00       	mov    $0x1d,%edi
  4029d1:	e8 7a e3 ff ff       	callq  400d50 <signal@plt>
  4029d6:	be 01 00 00 00       	mov    $0x1,%esi
  4029db:	bf 1d 00 00 00       	mov    $0x1d,%edi
  4029e0:	e8 6b e3 ff ff       	callq  400d50 <signal@plt>
  4029e5:	ba 00 00 00 00       	mov    $0x0,%edx
  4029ea:	be 01 00 00 00       	mov    $0x1,%esi
  4029ef:	bf 02 00 00 00       	mov    $0x2,%edi
  4029f4:	e8 77 e4 ff ff       	callq  400e70 <socket@plt>
  4029f9:	85 c0                	test   %eax,%eax
  4029fb:	0f 88 83 00 00 00    	js     402a84 <init_driver+0xd5>
  402a01:	89 c3                	mov    %eax,%ebx
  402a03:	bf 08 30 40 00       	mov    $0x403008,%edi
  402a08:	e8 53 e3 ff ff       	callq  400d60 <gethostbyname@plt>
  402a0d:	48 85 c0             	test   %rax,%rax
  402a10:	0f 84 ba 00 00 00    	je     402ad0 <init_driver+0x121>
  402a16:	48 c7 44 24 02 00 00 	movq   $0x0,0x2(%rsp)
  402a1d:	00 00 
  402a1f:	c7 44 24 0a 00 00 00 	movl   $0x0,0xa(%rsp)
  402a26:	00 
  402a27:	66 c7 44 24 0e 00 00 	movw   $0x0,0xe(%rsp)
  402a2e:	66 c7 04 24 02 00    	movw   $0x2,(%rsp)
  402a34:	48 8b 48 18          	mov    0x18(%rax),%rcx
  402a38:	48 63 50 14          	movslq 0x14(%rax),%rdx
  402a3c:	48 8d 7c 24 04       	lea    0x4(%rsp),%rdi
  402a41:	48 8b 31             	mov    (%rcx),%rsi
  402a44:	e8 97 e3 ff ff       	callq  400de0 <memmove@plt>
  402a49:	66 c7 44 24 02 3c 9a 	movw   $0x9a3c,0x2(%rsp)
  402a50:	ba 10 00 00 00       	mov    $0x10,%edx
  402a55:	48 89 e6             	mov    %rsp,%rsi
  402a58:	89 df                	mov    %ebx,%edi
  402a5a:	e8 f1 e3 ff ff       	callq  400e50 <connect@plt>
  402a5f:	85 c0                	test   %eax,%eax
  402a61:	0f 88 d1 00 00 00    	js     402b38 <init_driver+0x189>
  402a67:	89 df                	mov    %ebx,%edi
  402a69:	e8 c2 e2 ff ff       	callq  400d30 <close@plt>
  402a6e:	66 c7 45 00 4f 4b    	movw   $0x4b4f,0x0(%rbp)
  402a74:	c6 45 02 00          	movb   $0x0,0x2(%rbp)
  402a78:	b8 00 00 00 00       	mov    $0x0,%eax
  402a7d:	48 83 c4 18          	add    $0x18,%rsp
  402a81:	5b                   	pop    %rbx
  402a82:	5d                   	pop    %rbp
  402a83:	c3                   	retq   
  402a84:	48 b8 45 72 72 6f 72 	movabs $0x43203a726f727245,%rax
  402a8b:	3a 20 43 
  402a8e:	48 ba 6c 69 65 6e 74 	movabs $0x6e7520746e65696c,%rdx
  402a95:	20 75 6e 
  402a98:	48 89 45 00          	mov    %rax,0x0(%rbp)
  402a9c:	48 89 55 08          	mov    %rdx,0x8(%rbp)
  402aa0:	48 b8 61 62 6c 65 20 	movabs $0x206f7420656c6261,%rax
  402aa7:	74 6f 20 
  402aaa:	48 ba 63 72 65 61 74 	movabs $0x7320657461657263,%rdx
  402ab1:	65 20 73 
  402ab4:	48 89 45 10          	mov    %rax,0x10(%rbp)
  402ab8:	48 89 55 18          	mov    %rdx,0x18(%rbp)
  402abc:	c7 45 20 6f 63 6b 65 	movl   $0x656b636f,0x20(%rbp)
  402ac3:	66 c7 45 24 74 00    	movw   $0x74,0x24(%rbp)
  402ac9:	b8 ff ff ff ff       	mov    $0xffffffff,%eax
  402ace:	eb ad                	jmp    402a7d <init_driver+0xce>
  402ad0:	48 b8 45 72 72 6f 72 	movabs $0x44203a726f727245,%rax
  402ad7:	3a 20 44 
  402ada:	48 ba 4e 53 20 69 73 	movabs $0x6e7520736920534e,%rdx
  402ae1:	20 75 6e 
  402ae4:	48 89 45 00          	mov    %rax,0x0(%rbp)
  402ae8:	48 89 55 08          	mov    %rdx,0x8(%rbp)
  402aec:	48 b8 61 62 6c 65 20 	movabs $0x206f7420656c6261,%rax
  402af3:	74 6f 20 
  402af6:	48 ba 72 65 73 6f 6c 	movabs $0x2065766c6f736572,%rdx
  402afd:	76 65 20 
  402b00:	48 89 45 10          	mov    %rax,0x10(%rbp)
  402b04:	48 89 55 18          	mov    %rdx,0x18(%rbp)
  402b08:	48 b8 73 65 72 76 65 	movabs $0x6120726576726573,%rax
  402b0f:	72 20 61 
  402b12:	48 89 45 20          	mov    %rax,0x20(%rbp)
  402b16:	c7 45 28 64 64 72 65 	movl   $0x65726464,0x28(%rbp)
  402b1d:	66 c7 45 2c 73 73    	movw   $0x7373,0x2c(%rbp)
  402b23:	c6 45 2e 00          	movb   $0x0,0x2e(%rbp)
  402b27:	89 df                	mov    %ebx,%edi
  402b29:	e8 02 e2 ff ff       	callq  400d30 <close@plt>
  402b2e:	b8 ff ff ff ff       	mov    $0xffffffff,%eax
  402b33:	e9 45 ff ff ff       	jmpq   402a7d <init_driver+0xce>
  402b38:	48 b8 45 72 72 6f 72 	movabs $0x55203a726f727245,%rax
  402b3f:	3a 20 55 
  402b42:	48 ba 6e 61 62 6c 65 	movabs $0x6f7420656c62616e,%rdx
  402b49:	20 74 6f 
  402b4c:	48 89 45 00          	mov    %rax,0x0(%rbp)
  402b50:	48 89 55 08          	mov    %rdx,0x8(%rbp)
  402b54:	48 b8 20 63 6f 6e 6e 	movabs $0x7463656e6e6f6320,%rax
  402b5b:	65 63 74 
  402b5e:	48 ba 20 74 6f 20 73 	movabs $0x76726573206f7420,%rdx
  402b65:	65 72 76 
  402b68:	48 89 45 10          	mov    %rax,0x10(%rbp)
  402b6c:	48 89 55 18          	mov    %rdx,0x18(%rbp)
  402b70:	66 c7 45 20 65 72    	movw   $0x7265,0x20(%rbp)
  402b76:	c6 45 22 00          	movb   $0x0,0x22(%rbp)
  402b7a:	89 df                	mov    %ebx,%edi
  402b7c:	e8 af e1 ff ff       	callq  400d30 <close@plt>
  402b81:	b8 ff ff ff ff       	mov    $0xffffffff,%eax
  402b86:	e9 f2 fe ff ff       	jmpq   402a7d <init_driver+0xce>

0000000000402b8b <driver_post>:
  402b8b:	53                   	push   %rbx
  402b8c:	4c 89 cb             	mov    %r9,%rbx
  402b8f:	45 85 c0             	test   %r8d,%r8d
  402b92:	75 18                	jne    402bac <driver_post+0x21>
  402b94:	48 85 ff             	test   %rdi,%rdi
  402b97:	74 05                	je     402b9e <driver_post+0x13>
  402b99:	80 3f 00             	cmpb   $0x0,(%rdi)
  402b9c:	75 30                	jne    402bce <driver_post+0x43>
  402b9e:	66 c7 03 4f 4b       	movw   $0x4b4f,(%rbx)
  402ba3:	c6 43 02 00          	movb   $0x0,0x2(%rbx)
  402ba7:	44 89 c0             	mov    %r8d,%eax
  402baa:	5b                   	pop    %rbx
  402bab:	c3                   	retq   
  402bac:	48 89 ce             	mov    %rcx,%rsi
  402baf:	bf dc 34 40 00       	mov    $0x4034dc,%edi
  402bb4:	b8 00 00 00 00       	mov    $0x0,%eax
  402bb9:	e8 42 e1 ff ff       	callq  400d00 <printf@plt>
  402bbe:	66 c7 03 4f 4b       	movw   $0x4b4f,(%rbx)
  402bc3:	c6 43 02 00          	movb   $0x0,0x2(%rbx)
  402bc7:	b8 00 00 00 00       	mov    $0x0,%eax
  402bcc:	eb dc                	jmp    402baa <driver_post+0x1f>
  402bce:	48 83 ec 08          	sub    $0x8,%rsp
  402bd2:	41 51                	push   %r9
  402bd4:	49 89 c9             	mov    %rcx,%r9
  402bd7:	49 89 d0             	mov    %rdx,%r8
  402bda:	48 89 f9             	mov    %rdi,%rcx
  402bdd:	48 89 f2             	mov    %rsi,%rdx
  402be0:	be 9a 3c 00 00       	mov    $0x3c9a,%esi
  402be5:	bf 08 30 40 00       	mov    $0x403008,%edi
  402bea:	e8 5a f6 ff ff       	callq  402249 <submitr>
  402bef:	48 83 c4 10          	add    $0x10,%rsp
  402bf3:	eb b5                	jmp    402baa <driver_post+0x1f>

0000000000402bf5 <check>:
  402bf5:	89 f8                	mov    %edi,%eax
  402bf7:	c1 e8 1c             	shr    $0x1c,%eax
  402bfa:	74 1d                	je     402c19 <check+0x24>
  402bfc:	b9 00 00 00 00       	mov    $0x0,%ecx
  402c01:	83 f9 1f             	cmp    $0x1f,%ecx
  402c04:	7f 0d                	jg     402c13 <check+0x1e>
  402c06:	89 f8                	mov    %edi,%eax
  402c08:	d3 e8                	shr    %cl,%eax
  402c0a:	3c 0a                	cmp    $0xa,%al
  402c0c:	74 11                	je     402c1f <check+0x2a>
  402c0e:	83 c1 08             	add    $0x8,%ecx
  402c11:	eb ee                	jmp    402c01 <check+0xc>
  402c13:	b8 01 00 00 00       	mov    $0x1,%eax
  402c18:	c3                   	retq   
  402c19:	b8 00 00 00 00       	mov    $0x0,%eax
  402c1e:	c3                   	retq   
  402c1f:	b8 00 00 00 00       	mov    $0x0,%eax
  402c24:	c3                   	retq   

0000000000402c25 <gencookie>:
  402c25:	53                   	push   %rbx
  402c26:	83 c7 01             	add    $0x1,%edi
  402c29:	e8 72 e0 ff ff       	callq  400ca0 <srandom@plt>
  402c2e:	e8 7d e1 ff ff       	callq  400db0 <random@plt>
  402c33:	89 c3                	mov    %eax,%ebx
  402c35:	89 c7                	mov    %eax,%edi
  402c37:	e8 b9 ff ff ff       	callq  402bf5 <check>
  402c3c:	85 c0                	test   %eax,%eax
  402c3e:	74 ee                	je     402c2e <gencookie+0x9>
  402c40:	89 d8                	mov    %ebx,%eax
  402c42:	5b                   	pop    %rbx
  402c43:	c3                   	retq   
  402c44:	66 2e 0f 1f 84 00 00 	nopw   %cs:0x0(%rax,%rax,1)
  402c4b:	00 00 00 
  402c4e:	66 90                	xchg   %ax,%ax

0000000000402c50 <__libc_csu_init>:
  402c50:	f3 0f 1e fa          	endbr64 
  402c54:	41 57                	push   %r15
  402c56:	49 89 d7             	mov    %rdx,%r15
  402c59:	41 56                	push   %r14
  402c5b:	49 89 f6             	mov    %rsi,%r14
  402c5e:	41 55                	push   %r13
  402c60:	41 89 fd             	mov    %edi,%r13d
  402c63:	41 54                	push   %r12
  402c65:	4c 8d 25 94 11 20 00 	lea    0x201194(%rip),%r12        # 603e00 <__frame_dummy_init_array_entry>
  402c6c:	55                   	push   %rbp
  402c6d:	48 8d 2d 94 11 20 00 	lea    0x201194(%rip),%rbp        # 603e08 <__init_array_end>
  402c74:	53                   	push   %rbx
  402c75:	4c 29 e5             	sub    %r12,%rbp
  402c78:	48 83 ec 08          	sub    $0x8,%rsp
  402c7c:	e8 c7 df ff ff       	callq  400c48 <_init>
  402c81:	48 c1 fd 03          	sar    $0x3,%rbp
  402c85:	74 1f                	je     402ca6 <__libc_csu_init+0x56>
  402c87:	31 db                	xor    %ebx,%ebx
  402c89:	0f 1f 80 00 00 00 00 	nopl   0x0(%rax)
  402c90:	4c 89 fa             	mov    %r15,%rdx
  402c93:	4c 89 f6             	mov    %r14,%rsi
  402c96:	44 89 ef             	mov    %r13d,%edi
  402c99:	41 ff 14 dc          	callq  *(%r12,%rbx,8)
  402c9d:	48 83 c3 01          	add    $0x1,%rbx
  402ca1:	48 39 dd             	cmp    %rbx,%rbp
  402ca4:	75 ea                	jne    402c90 <__libc_csu_init+0x40>
  402ca6:	48 83 c4 08          	add    $0x8,%rsp
  402caa:	5b                   	pop    %rbx
  402cab:	5d                   	pop    %rbp
  402cac:	41 5c                	pop    %r12
  402cae:	41 5d                	pop    %r13
  402cb0:	41 5e                	pop    %r14
  402cb2:	41 5f                	pop    %r15
  402cb4:	c3                   	retq   

0000000000402cb5 <.annobin___libc_csu_fini.start>:
  402cb5:	66 66 2e 0f 1f 84 00 	data16 nopw %cs:0x0(%rax,%rax,1)
  402cbc:	00 00 00 00 

0000000000402cc0 <__libc_csu_fini>:
  402cc0:	f3 0f 1e fa          	endbr64 
  402cc4:	c3                   	retq   

Disassembly of section .fini:

0000000000402cc8 <_fini>:
  402cc8:	f3 0f 1e fa          	endbr64 
  402ccc:	48 83 ec 08          	sub    $0x8,%rsp
  402cd0:	48 83 c4 08          	add    $0x8,%rsp
  402cd4:	c3                   	retq   
